(ipool
Pool
p0
(dp1
S'timerdatafile'
p2
S'data/timerfile/AUDUSD240_td.csv'
p3
sS'mutatetime'
p4
F0.01586911295891369
sS'GS'
p5
(dp6
S'test_data_end'
p7
S'2016-05-25'
p8
sS'recur_boost'
p9
S'0.2'
p10
sS'weight'
p11
S'3.0'
p12
sS'profit_norm'
p13
F0.62745
sS'new_node'
p14
S'1.0'
p15
sS'test_data_start'
p16
S'1993-04-27'
p17
sS'test_data_path'
p18
S'data/npy_data/AUDUSD240_NormData.npy'
p19
sS'crossover'
p20
S'0.85'
p21
sS'traindata_end'
p22
S'2013-01-01'
p23
sS'step'
p24
S'0.8'
p25
sS'confirmdata_start'
p26
S'2012-07-01'
p27
sS'new_link'
p28
S'1.0'
p29
sS'threshold'
p30
S'1.6'
p31
sS'staleness'
p32
S'20'
p33
sS'population'
p34
S'30'
p35
sS'confirmdata_end'
p36
S'2016-05-20'
p37
sS'e_factor'
p38
S'1.0'
p39
sS'perf_mode'
p40
S'prof/dd'
p41
sS'perturbing'
p42
S'0.95'
p43
sS'd_factor'
p44
S'1.0'
p45
sS'traindata_start'
p46
S'2007-01-01'
p47
sS'spread'
p48
S'1.8'
p49
sS'pair'
p50
S'AUDUSD'
p51
sS'mutation'
p52
S'0.9'
p53
sS'timeframe'
p54
I240
sS'cores'
p55
S'3'
p56
sS'w_factor'
p57
S'0.5'
p58
ssS'processors'
p59
I3
sS'newgentime'
p60
F0.04623509464379971
sS'culltime'
p61
F0.00019029251594560037
sS'generation'
p62
I2
sS'innovations'
p63
(iinnovation
innovList
p64
(dp65
S'l_innovations'
p66
(lp67
(iinnovation
innovation
p68
(dp69
S'fromNode'
p70
I0
sS'innovNumber'
p71
I0
sS'innovType'
p72
I0
sS'nodeType'
p73
I0
sS'toNode'
p74
I0
sba(iinnovation
innovation
p75
(dp76
g70
I1
sg71
I1
sg72
I0
sg73
I1
sg74
I0
sba(iinnovation
innovation
p77
(dp78
g70
I2
sg71
I2
sg72
I0
sg73
I1
sg74
I0
sba(iinnovation
innovation
p79
(dp80
g70
I3
sg71
I3
sg72
I0
sg73
I1
sg74
I0
sba(iinnovation
innovation
p81
(dp82
g70
I4
sg71
I4
sg72
I0
sg73
I1
sg74
I0
sba(iinnovation
innovation
p83
(dp84
g70
I5
sg71
I5
sg72
I0
sg73
I1
sg74
I0
sba(iinnovation
innovation
p85
(dp86
g70
I6
sg71
I6
sg72
I0
sg73
I1
sg74
I0
sba(iinnovation
innovation
p87
(dp88
g70
I7
sg71
I7
sg72
I0
sg73
I1
sg74
I0
sba(iinnovation
innovation
p89
(dp90
g70
I8
sg71
I8
sg72
I0
sg73
I1
sg74
I0
sba(iinnovation
innovation
p91
(dp92
g70
I9
sg71
I9
sg72
I0
sg73
I1
sg74
I0
sba(iinnovation
innovation
p93
(dp94
g70
I0
sg71
I10
sg72
I0
sg73
I2
sg74
I1
sba(iinnovation
innovation
p95
(dp96
g70
I0
sg71
I11
sg72
I0
sg73
I2
sg74
I2
sba(iinnovation
innovation
p97
(dp98
g70
I0
sg71
I12
sg72
I0
sg73
I2
sg74
I3
sba(iinnovation
innovation
p99
(dp100
g70
I0
sg71
I13
sg72
I1
sg73
Nsg74
I10
sba(iinnovation
innovation
p101
(dp102
g70
I1
sg71
I14
sg72
I1
sg73
Nsg74
I10
sba(iinnovation
innovation
p103
(dp104
g70
I2
sg71
I15
sg72
I1
sg73
Nsg74
I10
sba(iinnovation
innovation
p105
(dp106
g70
I3
sg71
I16
sg72
I1
sg73
Nsg74
I10
sba(iinnovation
innovation
p107
(dp108
g70
I4
sg71
I17
sg72
I1
sg73
Nsg74
I10
sba(iinnovation
innovation
p109
(dp110
g70
I5
sg71
I18
sg72
I1
sg73
Nsg74
I10
sba(iinnovation
innovation
p111
(dp112
g70
I6
sg71
I19
sg72
I1
sg73
Nsg74
I10
sba(iinnovation
innovation
p113
(dp114
g70
I7
sg71
I20
sg72
I1
sg73
Nsg74
I10
sba(iinnovation
innovation
p115
(dp116
g70
I8
sg71
I21
sg72
I1
sg73
Nsg74
I10
sba(iinnovation
innovation
p117
(dp118
g70
I9
sg71
I22
sg72
I1
sg73
Nsg74
I10
sba(iinnovation
innovation
p119
(dp120
g70
I0
sg71
I23
sg72
I1
sg73
Nsg74
I11
sba(iinnovation
innovation
p121
(dp122
g70
I1
sg71
I24
sg72
I1
sg73
Nsg74
I11
sba(iinnovation
innovation
p123
(dp124
g70
I2
sg71
I25
sg72
I1
sg73
Nsg74
I11
sba(iinnovation
innovation
p125
(dp126
g70
I3
sg71
I26
sg72
I1
sg73
Nsg74
I11
sba(iinnovation
innovation
p127
(dp128
g70
I4
sg71
I27
sg72
I1
sg73
Nsg74
I11
sba(iinnovation
innovation
p129
(dp130
g70
I5
sg71
I28
sg72
I1
sg73
Nsg74
I11
sba(iinnovation
innovation
p131
(dp132
g70
I6
sg71
I29
sg72
I1
sg73
Nsg74
I11
sba(iinnovation
innovation
p133
(dp134
g70
I7
sg71
I30
sg72
I1
sg73
Nsg74
I11
sba(iinnovation
innovation
p135
(dp136
g70
I8
sg71
I31
sg72
I1
sg73
Nsg74
I11
sba(iinnovation
innovation
p137
(dp138
g70
I9
sg71
I32
sg72
I1
sg73
Nsg74
I11
sba(iinnovation
innovation
p139
(dp140
g70
I0
sg71
I33
sg72
I1
sg73
Nsg74
I12
sba(iinnovation
innovation
p141
(dp142
g70
I1
sg71
I34
sg72
I1
sg73
Nsg74
I12
sba(iinnovation
innovation
p143
(dp144
g70
I2
sg71
I35
sg72
I1
sg73
Nsg74
I12
sba(iinnovation
innovation
p145
(dp146
g70
I3
sg71
I36
sg72
I1
sg73
Nsg74
I12
sba(iinnovation
innovation
p147
(dp148
g70
I4
sg71
I37
sg72
I1
sg73
Nsg74
I12
sba(iinnovation
innovation
p149
(dp150
g70
I5
sg71
I38
sg72
I1
sg73
Nsg74
I12
sba(iinnovation
innovation
p151
(dp152
g70
I6
sg71
I39
sg72
I1
sg73
Nsg74
I12
sba(iinnovation
innovation
p153
(dp154
g70
I7
sg71
I40
sg72
I1
sg73
Nsg74
I12
sba(iinnovation
innovation
p155
(dp156
g70
I8
sg71
I41
sg72
I1
sg73
Nsg74
I12
sba(iinnovation
innovation
p157
(dp158
g70
I9
sg71
I42
sg72
I1
sg73
Nsg74
I12
sba(iinnovation
innovation
p159
(dp160
g70
I11
sg71
I43
sg72
I1
sg73
Nsg74
I11
sba(iinnovation
innovation
p161
(dp162
g70
I12
sg71
I44
sg72
I1
sg73
Nsg74
I10
sba(iinnovation
innovation
p163
(dp164
g70
I5
sg71
I45
sg72
I0
sg73
I3
sg74
I12
sba(iinnovation
innovation
p165
(dp166
g70
I5
sg71
I46
sg72
I1
sg73
Nsg74
I45
sba(iinnovation
innovation
p167
(dp168
g70
I45
sg71
I47
sg72
I1
sg73
Nsg74
I12
sba(iinnovation
innovation
p169
(dp170
g70
I0
sg71
I48
sg72
I0
sg73
I3
sg74
I12
sba(iinnovation
innovation
p171
(dp172
g70
I0
sg71
I49
sg72
I1
sg73
Nsg74
I48
sba(iinnovation
innovation
p173
(dp174
g70
I48
sg71
I50
sg72
I1
sg73
Nsg74
I12
sba(iinnovation
innovation
p175
(dp176
g70
I8
sg71
I51
sg72
I0
sg73
I3
sg74
I11
sba(iinnovation
innovation
p177
(dp178
g70
I8
sg71
I52
sg72
I1
sg73
Nsg74
I51
sba(iinnovation
innovation
p179
(dp180
g70
I51
sg71
I53
sg72
I1
sg73
Nsg74
I11
sba(iinnovation
innovation
p181
(dp182
g70
I9
sg71
I54
sg72
I0
sg73
I3
sg74
I12
sba(iinnovation
innovation
p183
(dp184
g70
I9
sg71
I55
sg72
I1
sg73
Nsg74
I54
sba(iinnovation
innovation
p185
(dp186
g70
I54
sg71
I56
sg72
I1
sg73
Nsg74
I12
sba(iinnovation
innovation
p187
(dp188
g70
I10
sg71
I57
sg72
I1
sg73
Nsg74
I12
sba(iinnovation
innovation
p189
(dp190
g70
I10
sg71
I58
sg72
I1
sg73
Nsg74
I11
sba(iinnovation
innovation
p191
(dp192
g70
I2
sg71
I59
sg72
I0
sg73
I3
sg74
I11
sba(iinnovation
innovation
p193
(dp194
g70
I2
sg71
I60
sg72
I1
sg73
Nsg74
I59
sba(iinnovation
innovation
p195
(dp196
g70
I59
sg71
I61
sg72
I1
sg73
Nsg74
I11
sba(iinnovation
innovation
p197
(dp198
g70
I4
sg71
I62
sg72
I0
sg73
I3
sg74
I11
sba(iinnovation
innovation
p199
(dp200
g70
I4
sg71
I63
sg72
I1
sg73
Nsg74
I62
sba(iinnovation
innovation
p201
(dp202
g70
I62
sg71
I64
sg72
I1
sg73
Nsg74
I11
sba(iinnovation
innovation
p203
(dp204
g70
I6
sg71
I65
sg72
I0
sg73
I3
sg74
I11
sba(iinnovation
innovation
p205
(dp206
g70
I6
sg71
I66
sg72
I1
sg73
Nsg74
I65
sba(iinnovation
innovation
p207
(dp208
g70
I65
sg71
I67
sg72
I1
sg73
Nsg74
I11
sba(iinnovation
innovation
p209
(dp210
g70
I5
sg71
I68
sg72
I0
sg73
I3
sg74
I11
sba(iinnovation
innovation
p211
(dp212
g70
I5
sg71
I69
sg72
I1
sg73
Nsg74
I68
sba(iinnovation
innovation
p213
(dp214
g70
I68
sg71
I70
sg72
I1
sg73
Nsg74
I11
sba(iinnovation
innovation
p215
(dp216
g70
I6
sg71
I71
sg72
I0
sg73
I3
sg74
I12
sba(iinnovation
innovation
p217
(dp218
g70
I6
sg71
I72
sg72
I1
sg73
Nsg74
I71
sba(iinnovation
innovation
p219
(dp220
g70
I71
sg71
I73
sg72
I1
sg73
Nsg74
I12
sba(iinnovation
innovation
p221
(dp222
g70
I11
sg71
I74
sg72
I1
sg73
Nsg74
I10
sba(iinnovation
innovation
p223
(dp224
g70
I1
sg71
I75
sg72
I0
sg73
I3
sg74
I11
sba(iinnovation
innovation
p225
(dp226
g70
I1
sg71
I76
sg72
I1
sg73
Nsg74
I75
sba(iinnovation
innovation
p227
(dp228
g70
I75
sg71
I77
sg72
I1
sg73
Nsg74
I11
sba(iinnovation
innovation
p229
(dp230
g70
I11
sg71
I78
sg72
I1
sg73
Nsg74
I12
sba(iinnovation
innovation
p231
(dp232
g70
I8
sg71
I79
sg72
I0
sg73
I3
sg74
I12
sba(iinnovation
innovation
p233
(dp234
g70
I8
sg71
I80
sg72
I1
sg73
Nsg74
I79
sba(iinnovation
innovation
p235
(dp236
g70
I79
sg71
I81
sg72
I1
sg73
Nsg74
I12
sba(iinnovation
innovation
p237
(dp238
g70
I9
sg71
I82
sg72
I0
sg73
I3
sg74
I10
sba(iinnovation
innovation
p239
(dp240
g70
I9
sg71
I83
sg72
I1
sg73
Nsg74
I82
sba(iinnovation
innovation
p241
(dp242
g70
I82
sg71
I84
sg72
I1
sg73
Nsg74
I10
sba(iinnovation
innovation
p243
(dp244
g70
I4
sg71
I85
sg72
I0
sg73
I3
sg74
I10
sba(iinnovation
innovation
p245
(dp246
g70
I4
sg71
I86
sg72
I1
sg73
Nsg74
I85
sba(iinnovation
innovation
p247
(dp248
g70
I85
sg71
I87
sg72
I1
sg73
Nsg74
I10
sba(iinnovation
innovation
p249
(dp250
g70
I10
sg71
I88
sg72
I1
sg73
Nsg74
I10
sba(iinnovation
innovation
p251
(dp252
g70
I3
sg71
I89
sg72
I0
sg73
I3
sg74
I10
sba(iinnovation
innovation
p253
(dp254
g70
I3
sg71
I90
sg72
I1
sg73
Nsg74
I89
sba(iinnovation
innovation
p255
(dp256
g70
I89
sg71
I91
sg72
I1
sg73
Nsg74
I10
sba(iinnovation
innovation
p257
(dp258
g70
I12
sg71
I92
sg72
I1
sg73
Nsg74
I11
sba(iinnovation
innovation
p259
(dp260
g70
I7
sg71
I93
sg72
I0
sg73
I3
sg74
I10
sba(iinnovation
innovation
p261
(dp262
g70
I7
sg71
I94
sg72
I1
sg73
Nsg74
I93
sba(iinnovation
innovation
p263
(dp264
g70
I93
sg71
I95
sg72
I1
sg73
Nsg74
I10
sba(iinnovation
innovation
p265
(dp266
g70
I0
sg71
I96
sg72
I0
sg73
I3
sg74
I11
sba(iinnovation
innovation
p267
(dp268
g70
I0
sg71
I97
sg72
I1
sg73
Nsg74
I96
sba(iinnovation
innovation
p269
(dp270
g70
I96
sg71
I98
sg72
I1
sg73
Nsg74
I11
sba(iinnovation
innovation
p271
(dp272
g70
I12
sg71
I99
sg72
I1
sg73
Nsg74
I12
sba(iinnovation
innovation
p273
(dp274
g70
I6
sg71
I100
sg72
I0
sg73
I3
sg74
I10
sba(iinnovation
innovation
p275
(dp276
g70
I6
sg71
I101
sg72
I1
sg73
Nsg74
I100
sba(iinnovation
innovation
p277
(dp278
g70
I100
sg71
I102
sg72
I1
sg73
Nsg74
I10
sba(iinnovation
innovation
p279
(dp280
g70
I4
sg71
I103
sg72
I0
sg73
I3
sg74
I62
sba(iinnovation
innovation
p281
(dp282
g70
I4
sg71
I104
sg72
I1
sg73
Nsg74
I103
sba(iinnovation
innovation
p283
(dp284
g70
I103
sg71
I105
sg72
I1
sg73
Nsg74
I62
sba(iinnovation
innovation
p285
(dp286
g70
I2
sg71
I106
sg72
I0
sg73
I3
sg74
I12
sba(iinnovation
innovation
p287
(dp288
g70
I2
sg71
I107
sg72
I1
sg73
Nsg74
I106
sba(iinnovation
innovation
p289
(dp290
g70
I106
sg71
I108
sg72
I1
sg73
Nsg74
I12
sba(iinnovation
innovation
p291
(dp292
g70
I3
sg71
I109
sg72
I0
sg73
I3
sg74
I11
sba(iinnovation
innovation
p293
(dp294
g70
I3
sg71
I110
sg72
I1
sg73
Nsg74
I109
sba(iinnovation
innovation
p295
(dp296
g70
I109
sg71
I111
sg72
I1
sg73
Nsg74
I11
sba(iinnovation
innovation
p297
(dp298
g70
I3
sg71
I112
sg72
I0
sg73
I3
sg74
I89
sba(iinnovation
innovation
p299
(dp300
g70
I3
sg71
I113
sg72
I1
sg73
Nsg74
I112
sba(iinnovation
innovation
p301
(dp302
g70
I112
sg71
I114
sg72
I1
sg73
Nsg74
I89
sba(iinnovation
innovation
p303
(dp304
g70
I8
sg71
I115
sg72
I0
sg73
I3
sg74
I10
sba(iinnovation
innovation
p305
(dp306
g70
I8
sg71
I116
sg72
I1
sg73
Nsg74
I115
sba(iinnovation
innovation
p307
(dp308
g70
I115
sg71
I117
sg72
I1
sg73
Nsg74
I10
sba(iinnovation
innovation
p309
(dp310
g70
I5
sg71
I118
sg72
I0
sg73
I3
sg74
I10
sba(iinnovation
innovation
p311
(dp312
g70
I5
sg71
I119
sg72
I1
sg73
Nsg74
I118
sba(iinnovation
innovation
p313
(dp314
g70
I118
sg71
I120
sg72
I1
sg73
Nsg74
I10
sba(iinnovation
innovation
p315
(dp316
g70
I7
sg71
I121
sg72
I0
sg73
I3
sg74
I11
sba(iinnovation
innovation
p317
(dp318
g70
I7
sg71
I122
sg72
I1
sg73
Nsg74
I121
sba(iinnovation
innovation
p319
(dp320
g70
I121
sg71
I123
sg72
I1
sg73
Nsg74
I11
sba(iinnovation
innovation
p321
(dp322
g70
I1
sg71
I124
sg72
I0
sg73
I3
sg74
I10
sba(iinnovation
innovation
p323
(dp324
g70
I1
sg71
I125
sg72
I1
sg73
Nsg74
I124
sba(iinnovation
innovation
p325
(dp326
g70
I124
sg71
I126
sg72
I1
sg73
Nsg74
I10
sbasS'new_innov_number'
p327
I127
sbsS'breedtime'
p328
F0.026971077675694843
sS'tottime'
p329
F11.289626064515579
sS'testtime'
p330
F11.243200677355834
sS'species'
p331
(ispecies
SpeciesList
p332
(dp333
S'max_pop_fitness'
p334
F0.0
sS'settings'
p335
g6
sg328
F0.026971077675694843
sS'weightsC'
p336
F0.5
sS'l_species'
p337
(lp338
(ispecies
species
p339
(dp340
S'breed'
p341
I30
sS'avg_fitness'
p342
F0.1321689985703439
sS'root_genome'
p343
(igenome
Genome
p344
(dp345
S'l_node_genes'
p346
(lp347
(igene
nodeGene
p348
(dp349
g73
I0
sS'innovationNumber'
p350
I0
sg70
I0
sg74
I0
sba(igene
nodeGene
p351
(dp352
g73
I1
sg350
I1
sg70
I1
sg74
I0
sba(igene
nodeGene
p353
(dp354
g73
I1
sg350
I2
sg70
I2
sg74
I0
sba(igene
nodeGene
p355
(dp356
g73
I1
sg350
I3
sg70
I3
sg74
I0
sba(igene
nodeGene
p357
(dp358
g73
I1
sg350
I4
sg70
I4
sg74
I0
sba(igene
nodeGene
p359
(dp360
g73
I1
sg350
I5
sg70
I5
sg74
I0
sba(igene
nodeGene
p361
(dp362
g73
I1
sg350
I6
sg70
I6
sg74
I0
sba(igene
nodeGene
p363
(dp364
g73
I1
sg350
I7
sg70
I7
sg74
I0
sba(igene
nodeGene
p365
(dp366
g73
I1
sg350
I8
sg70
I8
sg74
I0
sba(igene
nodeGene
p367
(dp368
g73
I1
sg350
I9
sg70
I9
sg74
I0
sba(igene
nodeGene
p369
(dp370
g73
I2
sg350
I10
sg70
I0
sg74
I1
sba(igene
nodeGene
p371
(dp372
g73
I2
sg350
I11
sg70
I0
sg74
I2
sba(igene
nodeGene
p373
(dp374
g73
I2
sg350
I12
sg70
I0
sg74
I3
sbasS'performance'
p375
(dp376
S't*p2/d'
p377
F0.0
sS'prof/dd'
p378
F0.0
sS'profit'
p379
F0.0
sS'trades'
p380
I0
sS'winratio'
p381
F0.0
sS'drawdown'
p382
F0.0
sS'fitness'
p383
F0.0
sS'p2/dd'
p384
F0.0
ssg383
F0.0
sS'l_link_genes'
p385
(lp386
(igene
linkGene
p387
(dp388
S'enabled'
p389
I01
sg350
I13
sg70
I0
sg74
I10
sS'weight'
p390
F1.4656846333691034
sba(igene
linkGene
p391
(dp392
g389
I01
sg350
I14
sg70
I1
sg74
I10
sg390
F-0.011140208203683777
sba(igene
linkGene
p393
(dp394
g389
I01
sg350
I15
sg70
I2
sg74
I10
sg390
F-1.2698431648060955
sba(igene
linkGene
p395
(dp396
g389
I01
sg350
I16
sg70
I3
sg74
I10
sg390
F2.6773271462987456
sba(igene
linkGene
p397
(dp398
g389
I01
sg350
I17
sg70
I4
sg74
I10
sg390
F-1.5001067976854578
sba(igene
linkGene
p399
(dp400
g389
I01
sg350
I18
sg70
I5
sg74
I10
sg390
F0.6284416180491661
sba(igene
linkGene
p401
(dp402
g389
I01
sg350
I19
sg70
I6
sg74
I10
sg390
F0.6325828860028002
sba(igene
linkGene
p403
(dp404
g389
I01
sg350
I20
sg70
I7
sg74
I10
sg390
F1.7609964159496538
sba(igene
linkGene
p405
(dp406
g389
I01
sg350
I21
sg70
I8
sg74
I10
sg390
F0.7678137183707308
sba(igene
linkGene
p407
(dp408
g389
I01
sg350
I22
sg70
I9
sg74
I10
sg390
F1.4991023555097538
sba(igene
linkGene
p409
(dp410
g389
I01
sg350
I23
sg70
I0
sg74
I11
sg390
F2.5599497157516202
sba(igene
linkGene
p411
(dp412
g389
I01
sg350
I24
sg70
I1
sg74
I11
sg390
F-1.6328711028543217
sba(igene
linkGene
p413
(dp414
g389
I01
sg350
I25
sg70
I2
sg74
I11
sg390
F-2.8435458557427222
sba(igene
linkGene
p415
(dp416
g389
I01
sg350
I26
sg70
I3
sg74
I11
sg390
F1.7504045566483297
sba(igene
linkGene
p417
(dp418
g389
I01
sg350
I27
sg70
I4
sg74
I11
sg390
F0.8276751553894934
sba(igene
linkGene
p419
(dp420
g389
I01
sg350
I28
sg70
I5
sg74
I11
sg390
F-1.8129324837019005
sba(igene
linkGene
p421
(dp422
g389
I01
sg350
I29
sg70
I6
sg74
I11
sg390
F-0.36673350632508583
sba(igene
linkGene
p423
(dp424
g389
I01
sg350
I30
sg70
I7
sg74
I11
sg390
F-1.9554219137076216
sba(igene
linkGene
p425
(dp426
g389
I01
sg350
I31
sg70
I8
sg74
I11
sg390
F-0.3533715906464807
sba(igene
linkGene
p427
(dp428
g389
I01
sg350
I32
sg70
I9
sg74
I11
sg390
F-1.5150822977213227
sba(igene
linkGene
p429
(dp430
g389
I01
sg350
I33
sg70
I0
sg74
I12
sg390
F-1.7419311643261817
sba(igene
linkGene
p431
(dp432
g389
I01
sg350
I34
sg70
I1
sg74
I12
sg390
F2.931125024930566
sba(igene
linkGene
p433
(dp434
g389
I01
sg350
I35
sg70
I2
sg74
I12
sg390
F0.4730736067198249
sba(igene
linkGene
p435
(dp436
g389
I01
sg350
I36
sg70
I3
sg74
I12
sg390
F1.20211494948546
sba(igene
linkGene
p437
(dp438
g389
I01
sg350
I37
sg70
I4
sg74
I12
sg390
F-2.0325304126509938
sba(igene
linkGene
p439
(dp440
g389
I01
sg350
I38
sg70
I5
sg74
I12
sg390
F-1.737080467596514
sba(igene
linkGene
p441
(dp442
g389
I01
sg350
I39
sg70
I6
sg74
I12
sg390
F-2.53856060601408
sba(igene
linkGene
p443
(dp444
g389
I01
sg350
I40
sg70
I7
sg74
I12
sg390
F-2.5044512379271966
sba(igene
linkGene
p445
(dp446
g389
I01
sg350
I41
sg70
I8
sg74
I12
sg390
F2.812314819485639
sba(igene
linkGene
p447
(dp448
g389
I01
sg350
I42
sg70
I9
sg74
I12
sg390
F1.6975190425071265
sbasg335
g6
sbsg335
g6
sS'sp_id'
p449
I1
sS'staleness'
p450
I0
sg328
F0.026971077675694843
sS'max_fitness'
p451
F5.807287218901204
sS'l_genomes'
p452
(lp453
(igenome
Genome
p454
(dp455
g346
(lp456
(igene
nodeGene
p457
(dp458
g73
I0
sg350
I0
sg70
I0
sg74
I0
sba(igene
nodeGene
p459
(dp460
g73
I1
sg350
I1
sg70
I1
sg74
I0
sba(igene
nodeGene
p461
(dp462
g73
I1
sg350
I2
sg70
I2
sg74
I0
sba(igene
nodeGene
p463
(dp464
g73
I1
sg350
I3
sg70
I3
sg74
I0
sba(igene
nodeGene
p465
(dp466
g73
I1
sg350
I4
sg70
I4
sg74
I0
sba(igene
nodeGene
p467
(dp468
g73
I1
sg350
I5
sg70
I5
sg74
I0
sba(igene
nodeGene
p469
(dp470
g73
I1
sg350
I6
sg70
I6
sg74
I0
sba(igene
nodeGene
p471
(dp472
g73
I1
sg350
I7
sg70
I7
sg74
I0
sba(igene
nodeGene
p473
(dp474
g73
I1
sg350
I8
sg70
I8
sg74
I0
sba(igene
nodeGene
p475
(dp476
g73
I1
sg350
I9
sg70
I9
sg74
I0
sba(igene
nodeGene
p477
(dp478
g73
I2
sg350
I10
sg70
I0
sg74
I1
sba(igene
nodeGene
p479
(dp480
g73
I2
sg350
I11
sg70
I0
sg74
I2
sba(igene
nodeGene
p481
(dp482
g73
I2
sg350
I12
sg70
I0
sg74
I3
sba(igene
nodeGene
p483
(dp484
g73
I3
sg350
I106
sg70
I2
sg74
I12
sbasg375
(dp485
S't*p2/d'
p486
F3.380504069238678
sS'prof/dd'
p487
F1.4374358222091863
sS'profit'
p488
F0.19598000000000015
sS'confirmfactor'
p489
F-0.6956832329829558
sS'trades'
p490
I12
sS'winratio'
p491
F0.4166666666666667
sS'drawdown'
p492
F0.1363399999999998
sg383
F0.0
sS'p2/dd'
p493
F0.2817086724365565
ssg383
F1.4374358222091863
sg385
(lp494
(igene
linkGene
p495
(dp496
g389
I01
sg350
I13
sg70
I0
sg74
I10
sg390
F2.339609218556008
sba(igene
linkGene
p497
(dp498
g389
I01
sg350
I14
sg70
I1
sg74
I10
sg390
F-2.2582197844503864
sba(igene
linkGene
p499
(dp500
g389
I01
sg350
I15
sg70
I2
sg74
I10
sg390
F-2.0483890539556997
sba(igene
linkGene
p501
(dp502
g389
I01
sg350
I16
sg70
I3
sg74
I10
sg390
F1.6215771096873013
sba(igene
linkGene
p503
(dp504
g389
I01
sg350
I17
sg70
I4
sg74
I10
sg390
F1.217093484090876
sba(igene
linkGene
p505
(dp506
g389
I01
sg350
I18
sg70
I5
sg74
I10
sg390
F0.19000798652113504
sba(igene
linkGene
p507
(dp508
g389
I01
sg350
I19
sg70
I6
sg74
I10
sg390
F1.8857225539603106
sba(igene
linkGene
p509
(dp510
g389
I01
sg350
I20
sg70
I7
sg74
I10
sg390
F1.2895061993764165
sba(igene
linkGene
p511
(dp512
g389
I01
sg350
I21
sg70
I8
sg74
I10
sg390
F-0.4711587842432263
sba(igene
linkGene
p513
(dp514
g389
I01
sg350
I22
sg70
I9
sg74
I10
sg390
F0.668055592385894
sba(igene
linkGene
p515
(dp516
g389
I01
sg350
I23
sg70
I0
sg74
I11
sg390
F-2.9122706401076135
sba(igene
linkGene
p517
(dp518
g389
I01
sg350
I24
sg70
I1
sg74
I11
sg390
F1.5097371300769975
sba(igene
linkGene
p519
(dp520
g389
I01
sg350
I25
sg70
I2
sg74
I11
sg390
F-0.8202844163895135
sba(igene
linkGene
p521
(dp522
g389
I01
sg350
I26
sg70
I3
sg74
I11
sg390
F1.5016785599863698
sba(igene
linkGene
p523
(dp524
g389
I01
sg350
I27
sg70
I4
sg74
I11
sg390
F-1.7962748206244104
sba(igene
linkGene
p525
(dp526
g389
I01
sg350
I28
sg70
I5
sg74
I11
sg390
F1.7412103035369995
sba(igene
linkGene
p527
(dp528
g389
I01
sg350
I29
sg70
I6
sg74
I11
sg390
F-1.3927640221812578
sba(igene
linkGene
p529
(dp530
g389
I01
sg350
I30
sg70
I7
sg74
I11
sg390
F0.0979415259242114
sba(igene
linkGene
p531
(dp532
g389
I01
sg350
I31
sg70
I8
sg74
I11
sg390
F1.7660762093724658
sba(igene
linkGene
p533
(dp534
g389
I01
sg350
I32
sg70
I9
sg74
I11
sg390
F-2.2838434823002527
sba(igene
linkGene
p535
(dp536
g389
I01
sg350
I33
sg70
I0
sg74
I12
sg390
F0.8539770191977825
sba(igene
linkGene
p537
(dp538
g389
I01
sg350
I34
sg70
I1
sg74
I12
sg390
F-2.6656520279651152
sba(igene
linkGene
p539
(dp540
g389
I00
sg350
I35
sg70
I2
sg74
I12
sg390
F0.00977036576380641
sba(igene
linkGene
p541
(dp542
g389
I01
sg350
I36
sg70
I3
sg74
I12
sg390
F-1.490223280709443
sba(igene
linkGene
p543
(dp544
g389
I01
sg350
I37
sg70
I4
sg74
I12
sg390
F-0.714881601590766
sba(igene
linkGene
p545
(dp546
g389
I01
sg350
I38
sg70
I5
sg74
I12
sg390
F1.8009900978104767
sba(igene
linkGene
p547
(dp548
g389
I01
sg350
I39
sg70
I6
sg74
I12
sg390
F-2.2532416704430576
sba(igene
linkGene
p549
(dp550
g389
I01
sg350
I40
sg70
I7
sg74
I12
sg390
F-1.2730505978875404
sba(igene
linkGene
p551
(dp552
g389
I01
sg350
I41
sg70
I8
sg74
I12
sg390
F-2.370974820816515
sba(igene
linkGene
p553
(dp554
g389
I01
sg350
I42
sg70
I9
sg74
I12
sg390
F0.2183344630658023
sba(igene
linkGene
p555
(dp556
g389
I01
sg350
I107
sg70
I2
sg74
I106
sg390
F1.0
sba(igene
linkGene
p557
(dp558
g389
I01
sg350
I108
sg70
I106
sg74
I12
sg390
F0.00977036576380641
sbasg335
g6
sba(igenome
Genome
p559
(dp560
g346
(lp561
(igene
nodeGene
p562
(dp563
g73
I0
sg350
I0
sg70
I0
sg74
I0
sba(igene
nodeGene
p564
(dp565
g73
I1
sg350
I1
sg70
I1
sg74
I0
sba(igene
nodeGene
p566
(dp567
g73
I1
sg350
I2
sg70
I2
sg74
I0
sba(igene
nodeGene
p568
(dp569
g73
I1
sg350
I3
sg70
I3
sg74
I0
sba(igene
nodeGene
p570
(dp571
g73
I1
sg350
I4
sg70
I4
sg74
I0
sba(igene
nodeGene
p572
(dp573
g73
I1
sg350
I5
sg70
I5
sg74
I0
sba(igene
nodeGene
p574
(dp575
g73
I1
sg350
I6
sg70
I6
sg74
I0
sba(igene
nodeGene
p576
(dp577
g73
I1
sg350
I7
sg70
I7
sg74
I0
sba(igene
nodeGene
p578
(dp579
g73
I1
sg350
I8
sg70
I8
sg74
I0
sba(igene
nodeGene
p580
(dp581
g73
I1
sg350
I9
sg70
I9
sg74
I0
sba(igene
nodeGene
p582
(dp583
g73
I2
sg350
I10
sg70
I0
sg74
I1
sba(igene
nodeGene
p584
(dp585
g73
I2
sg350
I11
sg70
I0
sg74
I2
sba(igene
nodeGene
p586
(dp587
g73
I2
sg350
I12
sg70
I0
sg74
I3
sba(igene
nodeGene
p588
(dp589
g73
I3
sg350
I54
sg70
I9
sg74
I12
sbasg375
(dp590
S't*p2/d'
p591
F108.737709967272
sS'prof/dd'
p592
F1.1844892255644617
sS'profit'
p593
F0.3221099999999997
sg489
F-0.7051533040889428
sS'trades'
p594
I285
sS'winratio'
p595
F0.47719298245614034
sS'drawdown'
p596
F0.27193999999999996
sg383
F0.0
sS'p2/dd'
p597
F0.3815358244465684
ssg383
F1.1844892255644617
sg385
(lp598
(igene
linkGene
p599
(dp600
g389
I01
sg350
I13
sg70
I0
sg74
I10
sg390
F-0.6323686623683047
sba(igene
linkGene
p601
(dp602
g389
I01
sg350
I14
sg70
I1
sg74
I10
sg390
F-2.4010362688751448
sba(igene
linkGene
p603
(dp604
g389
I01
sg350
I15
sg70
I2
sg74
I10
sg390
F2.319616758830516
sba(igene
linkGene
p605
(dp606
g389
I01
sg350
I16
sg70
I3
sg74
I10
sg390
F1.35997179441943
sba(igene
linkGene
p607
(dp608
g389
I01
sg350
I17
sg70
I4
sg74
I10
sg390
F-1.6843058947064267
sba(igene
linkGene
p609
(dp610
g389
I01
sg350
I18
sg70
I5
sg74
I10
sg390
F2.417340427525981
sba(igene
linkGene
p611
(dp612
g389
I01
sg350
I19
sg70
I6
sg74
I10
sg390
F3.4505413127407785
sba(igene
linkGene
p613
(dp614
g389
I01
sg350
I20
sg70
I7
sg74
I10
sg390
F0.7397607937241467
sba(igene
linkGene
p615
(dp616
g389
I01
sg350
I21
sg70
I8
sg74
I10
sg390
F2.736934606319024
sba(igene
linkGene
p617
(dp618
g389
I01
sg350
I22
sg70
I9
sg74
I10
sg390
F-2.414126821419126
sba(igene
linkGene
p619
(dp620
g389
I01
sg350
I23
sg70
I0
sg74
I11
sg390
F-1.1573839823754568
sba(igene
linkGene
p621
(dp622
g389
I01
sg350
I24
sg70
I1
sg74
I11
sg390
F-0.5978663427798867
sba(igene
linkGene
p623
(dp624
g389
I01
sg350
I25
sg70
I2
sg74
I11
sg390
F0.44249499711640716
sba(igene
linkGene
p625
(dp626
g389
I01
sg350
I26
sg70
I3
sg74
I11
sg390
F-2.1754851913922746
sba(igene
linkGene
p627
(dp628
g389
I01
sg350
I27
sg70
I4
sg74
I11
sg390
F-0.9498291382731328
sba(igene
linkGene
p629
(dp630
g389
I01
sg350
I28
sg70
I5
sg74
I11
sg390
F-1.1921305457819689
sba(igene
linkGene
p631
(dp632
g389
I01
sg350
I29
sg70
I6
sg74
I11
sg390
F-0.5863099580311997
sba(igene
linkGene
p633
(dp634
g389
I01
sg350
I30
sg70
I7
sg74
I11
sg390
F2.5553600068407465
sba(igene
linkGene
p635
(dp636
g389
I01
sg350
I31
sg70
I8
sg74
I11
sg390
F2.502076898456164
sba(igene
linkGene
p637
(dp638
g389
I01
sg350
I32
sg70
I9
sg74
I11
sg390
F3.109665061026276
sba(igene
linkGene
p639
(dp640
g389
I01
sg350
I33
sg70
I0
sg74
I12
sg390
F0.7802150025249732
sba(igene
linkGene
p641
(dp642
g389
I01
sg350
I34
sg70
I1
sg74
I12
sg390
F0.06926911000687874
sba(igene
linkGene
p643
(dp644
g389
I01
sg350
I35
sg70
I2
sg74
I12
sg390
F-0.5114915903801931
sba(igene
linkGene
p645
(dp646
g389
I01
sg350
I36
sg70
I3
sg74
I12
sg390
F-0.3266420818748772
sba(igene
linkGene
p647
(dp648
g389
I01
sg350
I37
sg70
I4
sg74
I12
sg390
F-2.758057350632579
sba(igene
linkGene
p649
(dp650
g389
I01
sg350
I38
sg70
I5
sg74
I12
sg390
F0.045689897325829065
sba(igene
linkGene
p651
(dp652
g389
I01
sg350
I39
sg70
I6
sg74
I12
sg390
F-1.8223762125804757
sba(igene
linkGene
p653
(dp654
g389
I01
sg350
I40
sg70
I7
sg74
I12
sg390
F-0.7938839119507104
sba(igene
linkGene
p655
(dp656
g389
I01
sg350
I41
sg70
I8
sg74
I12
sg390
F-1.6838019580222356
sba(igene
linkGene
p657
(dp658
g389
I00
sg350
I42
sg70
I9
sg74
I12
sg390
F-2.2155931713553665
sba(igene
linkGene
p659
(dp660
g389
I01
sg350
I55
sg70
I9
sg74
I54
sg390
F1.0
sba(igene
linkGene
p661
(dp662
g389
I01
sg350
I56
sg70
I54
sg74
I12
sg390
F-2.2155931713553665
sbasg335
g6
sba(igenome
Genome
p663
(dp664
g346
(lp665
(igene
nodeGene
p666
(dp667
g73
I0
sg350
I0
sg70
I0
sg74
I0
sba(igene
nodeGene
p668
(dp669
g73
I1
sg350
I1
sg70
I1
sg74
I0
sba(igene
nodeGene
p670
(dp671
g73
I1
sg350
I2
sg70
I2
sg74
I0
sba(igene
nodeGene
p672
(dp673
g73
I1
sg350
I3
sg70
I3
sg74
I0
sba(igene
nodeGene
p674
(dp675
g73
I1
sg350
I4
sg70
I4
sg74
I0
sba(igene
nodeGene
p676
(dp677
g73
I1
sg350
I5
sg70
I5
sg74
I0
sba(igene
nodeGene
p678
(dp679
g73
I1
sg350
I6
sg70
I6
sg74
I0
sba(igene
nodeGene
p680
(dp681
g73
I1
sg350
I7
sg70
I7
sg74
I0
sba(igene
nodeGene
p682
(dp683
g73
I1
sg350
I8
sg70
I8
sg74
I0
sba(igene
nodeGene
p684
(dp685
g73
I1
sg350
I9
sg70
I9
sg74
I0
sba(igene
nodeGene
p686
(dp687
g73
I2
sg350
I10
sg70
I0
sg74
I1
sba(igene
nodeGene
p688
(dp689
g73
I2
sg350
I11
sg70
I0
sg74
I2
sba(igene
nodeGene
p690
(dp691
g73
I2
sg350
I12
sg70
I0
sg74
I3
sba(igene
nodeGene
p692
(dp693
g73
I3
sg350
I71
sg70
I6
sg74
I12
sba(igene
nodeGene
p694
(dp695
g73
I3
sg350
I68
sg70
I5
sg74
I11
sbasg375
(dp696
g486
F40.05463400727309
sg487
F0.749090797016576
sg488
F0.2430499999999985
sg489
F-1.1074563198795848
sg490
I220
sg491
F0.45
sg492
F0.3244600000000003
sg383
F0.0
sg493
F0.18206651821487768
ssg383
F0.749090797016576
sg385
(lp697
(igene
linkGene
p698
(dp699
g389
I01
sg350
I13
sg70
I0
sg74
I10
sg390
F-0.5775773000407509
sba(igene
linkGene
p700
(dp701
g389
I01
sg350
I14
sg70
I1
sg74
I10
sg390
F-2.7297494769983093
sba(igene
linkGene
p702
(dp703
g389
I01
sg350
I15
sg70
I2
sg74
I10
sg390
F1.9033674975735808
sba(igene
linkGene
p704
(dp705
g389
I01
sg350
I16
sg70
I3
sg74
I10
sg390
F2.4440725941220465
sba(igene
linkGene
p706
(dp707
g389
I01
sg350
I17
sg70
I4
sg74
I10
sg390
F-2.4289474477066135
sba(igene
linkGene
p708
(dp709
g389
I01
sg350
I18
sg70
I5
sg74
I10
sg390
F1.732672508178764
sba(igene
linkGene
p710
(dp711
g389
I01
sg350
I19
sg70
I6
sg74
I10
sg390
F2.430536822930901
sba(igene
linkGene
p712
(dp713
g389
I01
sg350
I20
sg70
I7
sg74
I10
sg390
F0.5914962888344029
sba(igene
linkGene
p714
(dp715
g389
I01
sg350
I21
sg70
I8
sg74
I10
sg390
F0.5793265053595122
sba(igene
linkGene
p716
(dp717
g389
I01
sg350
I22
sg70
I9
sg74
I10
sg390
F-1.8458324373879746
sba(igene
linkGene
p718
(dp719
g389
I01
sg350
I23
sg70
I0
sg74
I11
sg390
F-1.1023315254044481
sba(igene
linkGene
p720
(dp721
g389
I01
sg350
I24
sg70
I1
sg74
I11
sg390
F-0.9738966626778773
sba(igene
linkGene
p722
(dp723
g389
I01
sg350
I25
sg70
I2
sg74
I11
sg390
F-1.6741288102374945
sba(igene
linkGene
p724
(dp725
g389
I01
sg350
I26
sg70
I3
sg74
I11
sg390
F-1.3584826237367766
sba(igene
linkGene
p726
(dp727
g389
I01
sg350
I27
sg70
I4
sg74
I11
sg390
F-0.8533955793246821
sba(igene
linkGene
p728
(dp729
g389
I00
sg350
I28
sg70
I5
sg74
I11
sg390
F-2.10318131886681
sba(igene
linkGene
p730
(dp731
g389
I01
sg350
I29
sg70
I6
sg74
I11
sg390
F-0.5283866203548775
sba(igene
linkGene
p732
(dp733
g389
I01
sg350
I30
sg70
I7
sg74
I11
sg390
F1.86771348959071
sba(igene
linkGene
p734
(dp735
g389
I01
sg350
I31
sg70
I8
sg74
I11
sg390
F3.5502177948075238
sba(igene
linkGene
p736
(dp737
g389
I01
sg350
I32
sg70
I9
sg74
I11
sg390
F2.821478337135217
sba(igene
linkGene
p738
(dp739
g389
I01
sg350
I33
sg70
I0
sg74
I12
sg390
F0.765546570423864
sba(igene
linkGene
p740
(dp741
g389
I01
sg350
I34
sg70
I1
sg74
I12
sg390
F-0.13234927488564918
sba(igene
linkGene
p742
(dp743
g389
I01
sg350
I35
sg70
I2
sg74
I12
sg390
F-0.8474245632400903
sba(igene
linkGene
p744
(dp745
g389
I01
sg350
I36
sg70
I3
sg74
I12
sg390
F-0.5374946501367617
sba(igene
linkGene
p746
(dp747
g389
I01
sg350
I37
sg70
I4
sg74
I12
sg390
F-2.8396263761747376
sba(igene
linkGene
p748
(dp749
g389
I01
sg350
I38
sg70
I5
sg74
I12
sg390
F0.6489274594772313
sba(igene
linkGene
p750
(dp751
g389
I00
sg350
I39
sg70
I6
sg74
I12
sg390
F-1.6949622058134386
sba(igene
linkGene
p752
(dp753
g389
I01
sg350
I40
sg70
I7
sg74
I12
sg390
F-1.9158728087295893
sba(igene
linkGene
p754
(dp755
g389
I01
sg350
I41
sg70
I8
sg74
I12
sg390
F-0.7511115218583653
sba(igene
linkGene
p756
(dp757
g389
I01
sg350
I42
sg70
I9
sg74
I12
sg390
F-2.4597926560869876
sba(igene
linkGene
p758
(dp759
g389
I01
sg350
I72
sg70
I6
sg74
I71
sg390
F1.0
sba(igene
linkGene
p760
(dp761
g389
I01
sg350
I73
sg70
I71
sg74
I12
sg390
F-1.6949622058134386
sba(igene
linkGene
p762
(dp763
g389
I01
sg350
I69
sg70
I5
sg74
I68
sg390
F1.0
sba(igene
linkGene
p764
(dp765
g389
I01
sg350
I70
sg70
I68
sg74
I11
sg390
F-2.10318131886681
sbasg335
g6
sba(igenome
Genome
p766
(dp767
g346
(lp768
(igene
nodeGene
p769
(dp770
g73
I0
sg350
I0
sg70
I0
sg74
I0
sba(igene
nodeGene
p771
(dp772
g73
I1
sg350
I1
sg70
I1
sg74
I0
sba(igene
nodeGene
p773
(dp774
g73
I1
sg350
I2
sg70
I2
sg74
I0
sba(igene
nodeGene
p775
(dp776
g73
I1
sg350
I3
sg70
I3
sg74
I0
sba(igene
nodeGene
p777
(dp778
g73
I1
sg350
I4
sg70
I4
sg74
I0
sba(igene
nodeGene
p779
(dp780
g73
I1
sg350
I5
sg70
I5
sg74
I0
sba(igene
nodeGene
p781
(dp782
g73
I1
sg350
I6
sg70
I6
sg74
I0
sba(igene
nodeGene
p783
(dp784
g73
I1
sg350
I7
sg70
I7
sg74
I0
sba(igene
nodeGene
p785
(dp786
g73
I1
sg350
I8
sg70
I8
sg74
I0
sba(igene
nodeGene
p787
(dp788
g73
I1
sg350
I9
sg70
I9
sg74
I0
sba(igene
nodeGene
p789
(dp790
g73
I2
sg350
I10
sg70
I0
sg74
I1
sba(igene
nodeGene
p791
(dp792
g73
I2
sg350
I11
sg70
I0
sg74
I2
sba(igene
nodeGene
p793
(dp794
g73
I2
sg350
I12
sg70
I0
sg74
I3
sba(igene
nodeGene
p795
(dp796
g73
I3
sg350
I118
sg70
I5
sg74
I10
sba(igene
nodeGene
p797
(dp798
g73
I3
sg350
I85
sg70
I4
sg74
I10
sbasg375
(dp799
S't*p2/d'
p800
F30.044635632713817
sS'prof/dd'
p801
F0.5940492651200925
sS'profit'
p802
F0.23200000000000015
sg489
F-1.489789067402539
sS'trades'
p803
I218
sS'winratio'
p804
F0.44495412844036697
sS'drawdown'
p805
F0.3905399999999987
sg383
F0.0
sS'p2/dd'
p806
F0.13781942950786155
ssg383
F0.5940492651200925
sg385
(lp807
(igene
linkGene
p808
(dp809
g389
I01
sg350
I13
sg70
I0
sg74
I10
sg390
F2.278146319577205
sba(igene
linkGene
p810
(dp811
g389
I01
sg350
I14
sg70
I1
sg74
I10
sg390
F-1.3012563382311222
sba(igene
linkGene
p812
(dp813
g389
I01
sg350
I15
sg70
I2
sg74
I10
sg390
F0.09875897734247496
sba(igene
linkGene
p814
(dp815
g389
I01
sg350
I16
sg70
I3
sg74
I10
sg390
F-1.2281485464691675
sba(igene
linkGene
p816
(dp817
g389
I00
sg350
I17
sg70
I4
sg74
I10
sg390
F-1.2687786987724134
sba(igene
linkGene
p818
(dp819
g389
I00
sg350
I18
sg70
I5
sg74
I10
sg390
F1.6335204945860906
sba(igene
linkGene
p820
(dp821
g389
I01
sg350
I19
sg70
I6
sg74
I10
sg390
F2.048070102058513
sba(igene
linkGene
p822
(dp823
g389
I01
sg350
I20
sg70
I7
sg74
I10
sg390
F-0.3157463595883394
sba(igene
linkGene
p824
(dp825
g389
I01
sg350
I21
sg70
I8
sg74
I10
sg390
F0.5508534359610939
sba(igene
linkGene
p826
(dp827
g389
I01
sg350
I22
sg70
I9
sg74
I10
sg390
F1.5163849706985884
sba(igene
linkGene
p828
(dp829
g389
I01
sg350
I23
sg70
I0
sg74
I11
sg390
F1.6648893338297994
sba(igene
linkGene
p830
(dp831
g389
I01
sg350
I24
sg70
I1
sg74
I11
sg390
F1.9925127530538154
sba(igene
linkGene
p832
(dp833
g389
I01
sg350
I25
sg70
I2
sg74
I11
sg390
F1.703770098891379
sba(igene
linkGene
p834
(dp835
g389
I01
sg350
I26
sg70
I3
sg74
I11
sg390
F-0.16294893163185087
sba(igene
linkGene
p836
(dp837
g389
I01
sg350
I27
sg70
I4
sg74
I11
sg390
F-3.4038143822252027
sba(igene
linkGene
p838
(dp839
g389
I01
sg350
I28
sg70
I5
sg74
I11
sg390
F2.714813410500954
sba(igene
linkGene
p840
(dp841
g389
I01
sg350
I29
sg70
I6
sg74
I11
sg390
F-3.502965702309406
sba(igene
linkGene
p842
(dp843
g389
I01
sg350
I30
sg70
I7
sg74
I11
sg390
F0.33961843300517947
sba(igene
linkGene
p844
(dp845
g389
I01
sg350
I31
sg70
I8
sg74
I11
sg390
F0.9954460989329389
sba(igene
linkGene
p846
(dp847
g389
I01
sg350
I32
sg70
I9
sg74
I11
sg390
F1.0326967881113343
sba(igene
linkGene
p848
(dp849
g389
I01
sg350
I33
sg70
I0
sg74
I12
sg390
F-0.7403247473191781
sba(igene
linkGene
p850
(dp851
g389
I01
sg350
I34
sg70
I1
sg74
I12
sg390
F-2.030458361658934
sba(igene
linkGene
p852
(dp853
g389
I01
sg350
I35
sg70
I2
sg74
I12
sg390
F1.198580290967848
sba(igene
linkGene
p854
(dp855
g389
I01
sg350
I36
sg70
I3
sg74
I12
sg390
F2.743376071662774
sba(igene
linkGene
p856
(dp857
g389
I01
sg350
I37
sg70
I4
sg74
I12
sg390
F-1.7492625464963343
sba(igene
linkGene
p858
(dp859
g389
I01
sg350
I38
sg70
I5
sg74
I12
sg390
F-2.3963479278869606
sba(igene
linkGene
p860
(dp861
g389
I01
sg350
I39
sg70
I6
sg74
I12
sg390
F-0.036729900851793285
sba(igene
linkGene
p862
(dp863
g389
I01
sg350
I40
sg70
I7
sg74
I12
sg390
F-0.39878390918375817
sba(igene
linkGene
p864
(dp865
g389
I01
sg350
I41
sg70
I8
sg74
I12
sg390
F2.2852006345282505
sba(igene
linkGene
p866
(dp867
g389
I01
sg350
I42
sg70
I9
sg74
I12
sg390
F0.47383709503250937
sba(igene
linkGene
p868
(dp869
g389
I01
sg350
I43
sg70
I11
sg74
I11
sg390
F-1.409672247108026
sba(igene
linkGene
p870
(dp871
g389
I01
sg350
I119
sg70
I5
sg74
I118
sg390
F1.0
sba(igene
linkGene
p872
(dp873
g389
I01
sg350
I120
sg70
I118
sg74
I10
sg390
F1.6335204945860906
sba(igene
linkGene
p874
(dp875
g389
I01
sg350
I86
sg70
I4
sg74
I85
sg390
F1.0
sba(igene
linkGene
p876
(dp877
g389
I01
sg350
I87
sg70
I85
sg74
I10
sg390
F-1.2687786987724134
sbasg335
g6
sba(igenome
Genome
p878
(dp879
g346
(lp880
(igene
nodeGene
p881
(dp882
g73
I0
sg350
I0
sg70
I0
sg74
I0
sba(igene
nodeGene
p883
(dp884
g73
I1
sg350
I1
sg70
I1
sg74
I0
sba(igene
nodeGene
p885
(dp886
g73
I1
sg350
I2
sg70
I2
sg74
I0
sba(igene
nodeGene
p887
(dp888
g73
I1
sg350
I3
sg70
I3
sg74
I0
sba(igene
nodeGene
p889
(dp890
g73
I1
sg350
I4
sg70
I4
sg74
I0
sba(igene
nodeGene
p891
(dp892
g73
I1
sg350
I5
sg70
I5
sg74
I0
sba(igene
nodeGene
p893
(dp894
g73
I1
sg350
I6
sg70
I6
sg74
I0
sba(igene
nodeGene
p895
(dp896
g73
I1
sg350
I7
sg70
I7
sg74
I0
sba(igene
nodeGene
p897
(dp898
g73
I1
sg350
I8
sg70
I8
sg74
I0
sba(igene
nodeGene
p899
(dp900
g73
I1
sg350
I9
sg70
I9
sg74
I0
sba(igene
nodeGene
p901
(dp902
g73
I2
sg350
I10
sg70
I0
sg74
I1
sba(igene
nodeGene
p903
(dp904
g73
I2
sg350
I11
sg70
I0
sg74
I2
sba(igene
nodeGene
p905
(dp906
g73
I2
sg350
I12
sg70
I0
sg74
I3
sba(igene
nodeGene
p907
(dp908
g73
I3
sg350
I65
sg70
I6
sg74
I11
sbasg375
(dp909
S't*p2/d'
p910
F0.0021199999999999687
sS'prof/dd'
p911
F4.4943999999998676e-06
sS'profit'
p912
F0.0021199999999999687
sg489
F21313422.208998226
sS'trades'
p913
I1
sS'winratio'
p914
F1.0
sS'drawdown'
p915
F0.0
sg383
F4.4943999999998676e-06
sS'p2/dd'
p916
F0.0021199999999999687
ssg383
F4.4943999999998676e-06
sg385
(lp917
(igene
linkGene
p918
(dp919
g389
I01
sg350
I13
sg70
I0
sg74
I10
sg390
F2.1148793587237673
sba(igene
linkGene
p920
(dp921
g389
I01
sg350
I14
sg70
I1
sg74
I10
sg390
F-1.7405748595773551
sba(igene
linkGene
p922
(dp923
g389
I01
sg350
I15
sg70
I2
sg74
I10
sg390
F-2.6018050851364682
sba(igene
linkGene
p924
(dp925
g389
I01
sg350
I16
sg70
I3
sg74
I10
sg390
F0.960408876216917
sba(igene
linkGene
p926
(dp927
g389
I01
sg350
I17
sg70
I4
sg74
I10
sg390
F-2.6476447508531686
sba(igene
linkGene
p928
(dp929
g389
I01
sg350
I18
sg70
I5
sg74
I10
sg390
F3.5189541307824346
sba(igene
linkGene
p930
(dp931
g389
I01
sg350
I19
sg70
I6
sg74
I10
sg390
F-1.7020501626468232
sba(igene
linkGene
p932
(dp933
g389
I01
sg350
I20
sg70
I7
sg74
I10
sg390
F-0.8628762021998642
sba(igene
linkGene
p934
(dp935
g389
I01
sg350
I21
sg70
I8
sg74
I10
sg390
F0.679814057785969
sba(igene
linkGene
p936
(dp937
g389
I01
sg350
I22
sg70
I9
sg74
I10
sg390
F1.8385140410531435
sba(igene
linkGene
p938
(dp939
g389
I01
sg350
I23
sg70
I0
sg74
I11
sg390
F-1.498979611100968
sba(igene
linkGene
p940
(dp941
g389
I01
sg350
I24
sg70
I1
sg74
I11
sg390
F3.1083700640310785
sba(igene
linkGene
p942
(dp943
g389
I01
sg350
I25
sg70
I2
sg74
I11
sg390
F-0.1162983512904533
sba(igene
linkGene
p944
(dp945
g389
I01
sg350
I26
sg70
I3
sg74
I11
sg390
F-2.313404253366814
sba(igene
linkGene
p946
(dp947
g389
I01
sg350
I27
sg70
I4
sg74
I11
sg390
F2.964066034767539
sba(igene
linkGene
p948
(dp949
g389
I01
sg350
I28
sg70
I5
sg74
I11
sg390
F1.7004473494353975
sba(igene
linkGene
p950
(dp951
g389
I00
sg350
I29
sg70
I6
sg74
I11
sg390
F3.1184357615557277
sba(igene
linkGene
p952
(dp953
g389
I01
sg350
I30
sg70
I7
sg74
I11
sg390
F2.536619326929814
sba(igene
linkGene
p954
(dp955
g389
I01
sg350
I31
sg70
I8
sg74
I11
sg390
F-0.10130513614923764
sba(igene
linkGene
p956
(dp957
g389
I01
sg350
I32
sg70
I9
sg74
I11
sg390
F1.7254415596829609
sba(igene
linkGene
p958
(dp959
g389
I01
sg350
I33
sg70
I0
sg74
I12
sg390
F-1.4477062894052322
sba(igene
linkGene
p960
(dp961
g389
I01
sg350
I34
sg70
I1
sg74
I12
sg390
F-2.948132644473916
sba(igene
linkGene
p962
(dp963
g389
I01
sg350
I35
sg70
I2
sg74
I12
sg390
F-2.583060996203872
sba(igene
linkGene
p964
(dp965
g389
I01
sg350
I36
sg70
I3
sg74
I12
sg390
F0.2598490779373218
sba(igene
linkGene
p966
(dp967
g389
I01
sg350
I37
sg70
I4
sg74
I12
sg390
F-1.644066254291156
sba(igene
linkGene
p968
(dp969
g389
I01
sg350
I38
sg70
I5
sg74
I12
sg390
F-0.5615413051526126
sba(igene
linkGene
p970
(dp971
g389
I01
sg350
I39
sg70
I6
sg74
I12
sg390
F0.23339679598251895
sba(igene
linkGene
p972
(dp973
g389
I01
sg350
I40
sg70
I7
sg74
I12
sg390
F0.6250831470876852
sba(igene
linkGene
p974
(dp975
g389
I01
sg350
I41
sg70
I8
sg74
I12
sg390
F0.5981664575629092
sba(igene
linkGene
p976
(dp977
g389
I01
sg350
I42
sg70
I9
sg74
I12
sg390
F2.5506527288559457
sba(igene
linkGene
p978
(dp979
g389
I01
sg350
I43
sg70
I11
sg74
I11
sg390
F-0.7661741358227125
sba(igene
linkGene
p980
(dp981
g389
I01
sg350
I66
sg70
I6
sg74
I65
sg390
F1.0
sba(igene
linkGene
p982
(dp983
g389
I01
sg350
I67
sg70
I65
sg74
I11
sg390
F3.1184357615557277
sbasg335
g6
sba(igenome
Genome
p984
(dp985
g346
(lp986
(igene
nodeGene
p987
(dp988
g73
I0
sg350
I0
sg70
I0
sg74
I0
sba(igene
nodeGene
p989
(dp990
g73
I1
sg350
I1
sg70
I1
sg74
I0
sba(igene
nodeGene
p991
(dp992
g73
I1
sg350
I2
sg70
I2
sg74
I0
sba(igene
nodeGene
p993
(dp994
g73
I1
sg350
I3
sg70
I3
sg74
I0
sba(igene
nodeGene
p995
(dp996
g73
I1
sg350
I4
sg70
I4
sg74
I0
sba(igene
nodeGene
p997
(dp998
g73
I1
sg350
I5
sg70
I5
sg74
I0
sba(igene
nodeGene
p999
(dp1000
g73
I1
sg350
I6
sg70
I6
sg74
I0
sba(igene
nodeGene
p1001
(dp1002
g73
I1
sg350
I7
sg70
I7
sg74
I0
sba(igene
nodeGene
p1003
(dp1004
g73
I1
sg350
I8
sg70
I8
sg74
I0
sba(igene
nodeGene
p1005
(dp1006
g73
I1
sg350
I9
sg70
I9
sg74
I0
sba(igene
nodeGene
p1007
(dp1008
g73
I2
sg350
I10
sg70
I0
sg74
I1
sba(igene
nodeGene
p1009
(dp1010
g73
I2
sg350
I11
sg70
I0
sg74
I2
sba(igene
nodeGene
p1011
(dp1012
g73
I2
sg350
I12
sg70
I0
sg74
I3
sba(igene
nodeGene
p1013
(dp1014
g73
I3
sg350
I109
sg70
I3
sg74
I11
sbasg375
(dp1015
g910
F0.0004200000000000449
sg911
F1.764000000000377e-07
sg912
F0.0004200000000000449
sg489
F12.925736961447958
sg913
I1
sg914
F1.0
sg915
F0.0
sg383
F1.764000000000377e-07
sg916
F0.0004200000000000449
ssg383
F1.764000000000377e-07
sg385
(lp1016
(igene
linkGene
p1017
(dp1018
g389
I01
sg350
I13
sg70
I0
sg74
I10
sg390
F3.1044790009757786
sba(igene
linkGene
p1019
(dp1020
g389
I01
sg350
I14
sg70
I1
sg74
I10
sg390
F-2.150701531690508
sba(igene
linkGene
p1021
(dp1022
g389
I01
sg350
I15
sg70
I2
sg74
I10
sg390
F-3.055070732199782
sba(igene
linkGene
p1023
(dp1024
g389
I01
sg350
I16
sg70
I3
sg74
I10
sg390
F0.4250971541079591
sba(igene
linkGene
p1025
(dp1026
g389
I01
sg350
I17
sg70
I4
sg74
I10
sg390
F0.024422610224001495
sba(igene
linkGene
p1027
(dp1028
g389
I01
sg350
I18
sg70
I5
sg74
I10
sg390
F2.1425903731565064
sba(igene
linkGene
p1029
(dp1030
g389
I01
sg350
I19
sg70
I6
sg74
I10
sg390
F-1.612306584264515
sba(igene
linkGene
p1031
(dp1032
g389
I01
sg350
I20
sg70
I7
sg74
I10
sg390
F-0.6807523752525135
sba(igene
linkGene
p1033
(dp1034
g389
I01
sg350
I21
sg70
I8
sg74
I10
sg390
F0.06415578973296454
sba(igene
linkGene
p1035
(dp1036
g389
I01
sg350
I22
sg70
I9
sg74
I10
sg390
F0.2468921969613671
sba(igene
linkGene
p1037
(dp1038
g389
I01
sg350
I23
sg70
I0
sg74
I11
sg390
F-1.4257442152925544
sba(igene
linkGene
p1039
(dp1040
g389
I01
sg350
I24
sg70
I1
sg74
I11
sg390
F3.4889290604872993
sba(igene
linkGene
p1041
(dp1042
g389
I01
sg350
I25
sg70
I2
sg74
I11
sg390
F0.6442892784613714
sba(igene
linkGene
p1043
(dp1044
g389
I00
sg350
I26
sg70
I3
sg74
I11
sg390
F-2.273398116502222
sba(igene
linkGene
p1045
(dp1046
g389
I01
sg350
I27
sg70
I4
sg74
I11
sg390
F1.985982133172656
sba(igene
linkGene
p1047
(dp1048
g389
I01
sg350
I28
sg70
I5
sg74
I11
sg390
F2.6111744883315113
sba(igene
linkGene
p1049
(dp1050
g389
I01
sg350
I29
sg70
I6
sg74
I11
sg390
F2.428979535843251
sba(igene
linkGene
p1051
(dp1052
g389
I01
sg350
I30
sg70
I7
sg74
I11
sg390
F2.5577509807883376
sba(igene
linkGene
p1053
(dp1054
g389
I01
sg350
I31
sg70
I8
sg74
I11
sg390
F-0.7243729990668779
sba(igene
linkGene
p1055
(dp1056
g389
I01
sg350
I32
sg70
I9
sg74
I11
sg390
F2.107731187317645
sba(igene
linkGene
p1057
(dp1058
g389
I01
sg350
I33
sg70
I0
sg74
I12
sg390
F-2.049567007223693
sba(igene
linkGene
p1059
(dp1060
g389
I01
sg350
I34
sg70
I1
sg74
I12
sg390
F-0.9433804569523838
sba(igene
linkGene
p1061
(dp1062
g389
I01
sg350
I35
sg70
I2
sg74
I12
sg390
F-1.6689892943762459
sba(igene
linkGene
p1063
(dp1064
g389
I01
sg350
I36
sg70
I3
sg74
I12
sg390
F0.7061772629268253
sba(igene
linkGene
p1065
(dp1066
g389
I01
sg350
I37
sg70
I4
sg74
I12
sg390
F-1.4818219045244163
sba(igene
linkGene
p1067
(dp1068
g389
I01
sg350
I38
sg70
I5
sg74
I12
sg390
F-1.327528034684411
sba(igene
linkGene
p1069
(dp1070
g389
I01
sg350
I39
sg70
I6
sg74
I12
sg390
F-0.28353005392117603
sba(igene
linkGene
p1071
(dp1072
g389
I01
sg350
I40
sg70
I7
sg74
I12
sg390
F0.8332104028847285
sba(igene
linkGene
p1073
(dp1074
g389
I01
sg350
I41
sg70
I8
sg74
I12
sg390
F0.6992762028375338
sba(igene
linkGene
p1075
(dp1076
g389
I01
sg350
I42
sg70
I9
sg74
I12
sg390
F3.1001666547473263
sba(igene
linkGene
p1077
(dp1078
g389
I01
sg350
I99
sg70
I12
sg74
I12
sg390
F-2.1160203561301376
sba(igene
linkGene
p1079
(dp1080
g389
I01
sg350
I110
sg70
I3
sg74
I109
sg390
F1.0
sba(igene
linkGene
p1081
(dp1082
g389
I01
sg350
I111
sg70
I109
sg74
I11
sg390
F-2.273398116502222
sbasg335
g6
sba(igenome
Genome
p1083
(dp1084
g346
(lp1085
(igene
nodeGene
p1086
(dp1087
g73
I0
sg350
I0
sg70
I0
sg74
I0
sba(igene
nodeGene
p1088
(dp1089
g73
I1
sg350
I1
sg70
I1
sg74
I0
sba(igene
nodeGene
p1090
(dp1091
g73
I1
sg350
I2
sg70
I2
sg74
I0
sba(igene
nodeGene
p1092
(dp1093
g73
I1
sg350
I3
sg70
I3
sg74
I0
sba(igene
nodeGene
p1094
(dp1095
g73
I1
sg350
I4
sg70
I4
sg74
I0
sba(igene
nodeGene
p1096
(dp1097
g73
I1
sg350
I5
sg70
I5
sg74
I0
sba(igene
nodeGene
p1098
(dp1099
g73
I1
sg350
I6
sg70
I6
sg74
I0
sba(igene
nodeGene
p1100
(dp1101
g73
I1
sg350
I7
sg70
I7
sg74
I0
sba(igene
nodeGene
p1102
(dp1103
g73
I1
sg350
I8
sg70
I8
sg74
I0
sba(igene
nodeGene
p1104
(dp1105
g73
I1
sg350
I9
sg70
I9
sg74
I0
sba(igene
nodeGene
p1106
(dp1107
g73
I2
sg350
I10
sg70
I0
sg74
I1
sba(igene
nodeGene
p1108
(dp1109
g73
I2
sg350
I11
sg70
I0
sg74
I2
sba(igene
nodeGene
p1110
(dp1111
g73
I2
sg350
I12
sg70
I0
sg74
I3
sba(igene
nodeGene
p1112
(dp1113
g73
I3
sg350
I48
sg70
I0
sg74
I12
sbasg375
(dp1114
S't*p2/d'
p1115
F0.0004200000000000449
sS'prof/dd'
p1116
F1.764000000000377e-07
sS'profit'
p1117
F0.0004200000000000449
sg489
F29.728458049879542
sS'trades'
p1118
I1
sS'winratio'
p1119
F1.0
sS'drawdown'
p1120
F0.0
sg383
F1.764000000000377e-07
sS'p2/dd'
p1121
F0.0004200000000000449
ssg383
F1.764000000000377e-07
sg385
(lp1122
(igene
linkGene
p1123
(dp1124
g389
I01
sg350
I13
sg70
I0
sg74
I10
sg390
F1.6573234572391584
sba(igene
linkGene
p1125
(dp1126
g389
I01
sg350
I14
sg70
I1
sg74
I10
sg390
F-0.8495493308446205
sba(igene
linkGene
p1127
(dp1128
g389
I01
sg350
I15
sg70
I2
sg74
I10
sg390
F-1.7941711413295494
sba(igene
linkGene
p1129
(dp1130
g389
I01
sg350
I16
sg70
I3
sg74
I10
sg390
F0.18359903600028882
sba(igene
linkGene
p1131
(dp1132
g389
I01
sg350
I17
sg70
I4
sg74
I10
sg390
F0.750983890821642
sba(igene
linkGene
p1133
(dp1134
g389
I01
sg350
I18
sg70
I5
sg74
I10
sg390
F2.2442056530438173
sba(igene
linkGene
p1135
(dp1136
g389
I01
sg350
I19
sg70
I6
sg74
I10
sg390
F-2.644588738331948
sba(igene
linkGene
p1137
(dp1138
g389
I01
sg350
I20
sg70
I7
sg74
I10
sg390
F-0.9129749768370667
sba(igene
linkGene
p1139
(dp1140
g389
I01
sg350
I21
sg70
I8
sg74
I10
sg390
F0.09080218523526717
sba(igene
linkGene
p1141
(dp1142
g389
I01
sg350
I22
sg70
I9
sg74
I10
sg390
F2.0793816088959067
sba(igene
linkGene
p1143
(dp1144
g389
I01
sg350
I23
sg70
I0
sg74
I11
sg390
F-1.5877806597299686
sba(igene
linkGene
p1145
(dp1146
g389
I01
sg350
I24
sg70
I1
sg74
I11
sg390
F3.1144005472366434
sba(igene
linkGene
p1147
(dp1148
g389
I01
sg350
I25
sg70
I2
sg74
I11
sg390
F0.18093688205358793
sba(igene
linkGene
p1149
(dp1150
g389
I01
sg350
I26
sg70
I3
sg74
I11
sg390
F-2.1746421866400554
sba(igene
linkGene
p1151
(dp1152
g389
I01
sg350
I27
sg70
I4
sg74
I11
sg390
F2.0704035440144093
sba(igene
linkGene
p1153
(dp1154
g389
I01
sg350
I28
sg70
I5
sg74
I11
sg390
F3.02628793766611
sba(igene
linkGene
p1155
(dp1156
g389
I01
sg350
I29
sg70
I6
sg74
I11
sg390
F2.3086683957383
sba(igene
linkGene
p1157
(dp1158
g389
I01
sg350
I30
sg70
I7
sg74
I11
sg390
F2.5131072379814094
sba(igene
linkGene
p1159
(dp1160
g389
I01
sg350
I31
sg70
I8
sg74
I11
sg390
F-0.5854944415278563
sba(igene
linkGene
p1161
(dp1162
g389
I01
sg350
I32
sg70
I9
sg74
I11
sg390
F2.2163696207028356
sba(igene
linkGene
p1163
(dp1164
g389
I00
sg350
I33
sg70
I0
sg74
I12
sg390
F-2.288368458093058
sba(igene
linkGene
p1165
(dp1166
g389
I01
sg350
I34
sg70
I1
sg74
I12
sg390
F-1.8335725364178987
sba(igene
linkGene
p1167
(dp1168
g389
I01
sg350
I35
sg70
I2
sg74
I12
sg390
F-1.475227556976543
sba(igene
linkGene
p1169
(dp1170
g389
I01
sg350
I36
sg70
I3
sg74
I12
sg390
F1.2461041706687346
sba(igene
linkGene
p1171
(dp1172
g389
I01
sg350
I37
sg70
I4
sg74
I12
sg390
F-2.8223408229455678
sba(igene
linkGene
p1173
(dp1174
g389
I01
sg350
I38
sg70
I5
sg74
I12
sg390
F-1.9405360814972226
sba(igene
linkGene
p1175
(dp1176
g389
I01
sg350
I39
sg70
I6
sg74
I12
sg390
F-0.3374891822029853
sba(igene
linkGene
p1177
(dp1178
g389
I01
sg350
I40
sg70
I7
sg74
I12
sg390
F1.25310426494174
sba(igene
linkGene
p1179
(dp1180
g389
I01
sg350
I41
sg70
I8
sg74
I12
sg390
F1.195034188705668
sba(igene
linkGene
p1181
(dp1182
g389
I01
sg350
I42
sg70
I9
sg74
I12
sg390
F2.353676154534717
sba(igene
linkGene
p1183
(dp1184
g389
I01
sg350
I43
sg70
I11
sg74
I11
sg390
F1.3077641987924116
sba(igene
linkGene
p1185
(dp1186
g389
I01
sg350
I49
sg70
I0
sg74
I48
sg390
F1.0
sba(igene
linkGene
p1187
(dp1188
g389
I01
sg350
I50
sg70
I48
sg74
I12
sg390
F-2.288368458093058
sbasg335
g6
sba(igenome
Genome
p1189
(dp1190
g346
(lp1191
(igene
nodeGene
p1192
(dp1193
g73
I0
sg350
I0
sg70
I0
sg74
I0
sba(igene
nodeGene
p1194
(dp1195
g73
I1
sg350
I1
sg70
I1
sg74
I0
sba(igene
nodeGene
p1196
(dp1197
g73
I1
sg350
I2
sg70
I2
sg74
I0
sba(igene
nodeGene
p1198
(dp1199
g73
I1
sg350
I3
sg70
I3
sg74
I0
sba(igene
nodeGene
p1200
(dp1201
g73
I1
sg350
I4
sg70
I4
sg74
I0
sba(igene
nodeGene
p1202
(dp1203
g73
I1
sg350
I5
sg70
I5
sg74
I0
sba(igene
nodeGene
p1204
(dp1205
g73
I1
sg350
I6
sg70
I6
sg74
I0
sba(igene
nodeGene
p1206
(dp1207
g73
I1
sg350
I7
sg70
I7
sg74
I0
sba(igene
nodeGene
p1208
(dp1209
g73
I1
sg350
I8
sg70
I8
sg74
I0
sba(igene
nodeGene
p1210
(dp1211
g73
I1
sg350
I9
sg70
I9
sg74
I0
sba(igene
nodeGene
p1212
(dp1213
g73
I2
sg350
I10
sg70
I0
sg74
I1
sba(igene
nodeGene
p1214
(dp1215
g73
I2
sg350
I11
sg70
I0
sg74
I2
sba(igene
nodeGene
p1216
(dp1217
g73
I2
sg350
I12
sg70
I0
sg74
I3
sba(igene
nodeGene
p1218
(dp1219
g73
I3
sg350
I45
sg70
I5
sg74
I12
sbasg375
(dp1220
g591
F0.0
sg592
F0.0
sg593
F0.0
sg594
I0
sg595
F0.0
sg596
F0.0
sg383
F0.0
sg597
F0.0
ssg383
F0.0
sg385
(lp1221
(igene
linkGene
p1222
(dp1223
g389
I01
sg350
I13
sg70
I0
sg74
I10
sg390
F-1.8012103194385343
sba(igene
linkGene
p1224
(dp1225
g389
I01
sg350
I14
sg70
I1
sg74
I10
sg390
F-1.46311773003188
sba(igene
linkGene
p1226
(dp1227
g389
I01
sg350
I15
sg70
I2
sg74
I10
sg390
F-0.20351710980198923
sba(igene
linkGene
p1228
(dp1229
g389
I01
sg350
I16
sg70
I3
sg74
I10
sg390
F-2.634868604670287
sba(igene
linkGene
p1230
(dp1231
g389
I01
sg350
I17
sg70
I4
sg74
I10
sg390
F-1.4861341940308308
sba(igene
linkGene
p1232
(dp1233
g389
I01
sg350
I18
sg70
I5
sg74
I10
sg390
F-1.587558922172386
sba(igene
linkGene
p1234
(dp1235
g389
I01
sg350
I19
sg70
I6
sg74
I10
sg390
F2.009555421911174
sba(igene
linkGene
p1236
(dp1237
g389
I01
sg350
I20
sg70
I7
sg74
I10
sg390
F-2.1781891265910964
sba(igene
linkGene
p1238
(dp1239
g389
I01
sg350
I21
sg70
I8
sg74
I10
sg390
F-2.219459235306579
sba(igene
linkGene
p1240
(dp1241
g389
I01
sg350
I22
sg70
I9
sg74
I10
sg390
F0.2588255625452853
sba(igene
linkGene
p1242
(dp1243
g389
I01
sg350
I23
sg70
I0
sg74
I11
sg390
F-0.1756192004021191
sba(igene
linkGene
p1244
(dp1245
g389
I01
sg350
I24
sg70
I1
sg74
I11
sg390
F2.979223355009146
sba(igene
linkGene
p1246
(dp1247
g389
I01
sg350
I25
sg70
I2
sg74
I11
sg390
F0.0373468416369685
sba(igene
linkGene
p1248
(dp1249
g389
I01
sg350
I26
sg70
I3
sg74
I11
sg390
F1.8220169434899174
sba(igene
linkGene
p1250
(dp1251
g389
I01
sg350
I27
sg70
I4
sg74
I11
sg390
F-1.150533725871702
sba(igene
linkGene
p1252
(dp1253
g389
I01
sg350
I28
sg70
I5
sg74
I11
sg390
F-1.383450878638244
sba(igene
linkGene
p1254
(dp1255
g389
I01
sg350
I29
sg70
I6
sg74
I11
sg390
F0.6428807076391077
sba(igene
linkGene
p1256
(dp1257
g389
I01
sg350
I30
sg70
I7
sg74
I11
sg390
F0.882078433706029
sba(igene
linkGene
p1258
(dp1259
g389
I01
sg350
I31
sg70
I8
sg74
I11
sg390
F-2.707108734082966
sba(igene
linkGene
p1260
(dp1261
g389
I01
sg350
I32
sg70
I9
sg74
I11
sg390
F3.3441614856825392
sba(igene
linkGene
p1262
(dp1263
g389
I01
sg350
I33
sg70
I0
sg74
I12
sg390
F-0.6167456830664064
sba(igene
linkGene
p1264
(dp1265
g389
I01
sg350
I34
sg70
I1
sg74
I12
sg390
F-1.3268366760729122
sba(igene
linkGene
p1266
(dp1267
g389
I01
sg350
I35
sg70
I2
sg74
I12
sg390
F3.0529202834903835
sba(igene
linkGene
p1268
(dp1269
g389
I01
sg350
I36
sg70
I3
sg74
I12
sg390
F-2.1996066665868588
sba(igene
linkGene
p1270
(dp1271
g389
I01
sg350
I37
sg70
I4
sg74
I12
sg390
F-1.01174742473312
sba(igene
linkGene
p1272
(dp1273
g389
I00
sg350
I38
sg70
I5
sg74
I12
sg390
F-2.570223620375699
sba(igene
linkGene
p1274
(dp1275
g389
I01
sg350
I39
sg70
I6
sg74
I12
sg390
F-2.4273218611582315
sba(igene
linkGene
p1276
(dp1277
g389
I01
sg350
I40
sg70
I7
sg74
I12
sg390
F0.4704209732561086
sba(igene
linkGene
p1278
(dp1279
g389
I01
sg350
I41
sg70
I8
sg74
I12
sg390
F0.5651413712179294
sba(igene
linkGene
p1280
(dp1281
g389
I01
sg350
I42
sg70
I9
sg74
I12
sg390
F-1.8262548642132805
sba(igene
linkGene
p1282
(dp1283
g389
I01
sg350
I43
sg70
I11
sg74
I11
sg390
F-0.012569130160209774
sba(igene
linkGene
p1284
(dp1285
g389
I01
sg350
I44
sg70
I12
sg74
I10
sg390
F1.8672357993023478
sba(igene
linkGene
p1286
(dp1287
g389
I01
sg350
I46
sg70
I5
sg74
I45
sg390
F1.0
sba(igene
linkGene
p1288
(dp1289
g389
I01
sg350
I47
sg70
I45
sg74
I12
sg390
F-2.570223620375699
sbasg335
g6
sba(igenome
Genome
p1290
(dp1291
g346
(lp1292
(igene
nodeGene
p1293
(dp1294
g73
I0
sg350
I0
sg70
I0
sg74
I0
sba(igene
nodeGene
p1295
(dp1296
g73
I1
sg350
I1
sg70
I1
sg74
I0
sba(igene
nodeGene
p1297
(dp1298
g73
I1
sg350
I2
sg70
I2
sg74
I0
sba(igene
nodeGene
p1299
(dp1300
g73
I1
sg350
I3
sg70
I3
sg74
I0
sba(igene
nodeGene
p1301
(dp1302
g73
I1
sg350
I4
sg70
I4
sg74
I0
sba(igene
nodeGene
p1303
(dp1304
g73
I1
sg350
I5
sg70
I5
sg74
I0
sba(igene
nodeGene
p1305
(dp1306
g73
I1
sg350
I6
sg70
I6
sg74
I0
sba(igene
nodeGene
p1307
(dp1308
g73
I1
sg350
I7
sg70
I7
sg74
I0
sba(igene
nodeGene
p1309
(dp1310
g73
I1
sg350
I8
sg70
I8
sg74
I0
sba(igene
nodeGene
p1311
(dp1312
g73
I1
sg350
I9
sg70
I9
sg74
I0
sba(igene
nodeGene
p1313
(dp1314
g73
I2
sg350
I10
sg70
I0
sg74
I1
sba(igene
nodeGene
p1315
(dp1316
g73
I2
sg350
I11
sg70
I0
sg74
I2
sba(igene
nodeGene
p1317
(dp1318
g73
I2
sg350
I12
sg70
I0
sg74
I3
sba(igene
nodeGene
p1319
(dp1320
g73
I3
sg350
I48
sg70
I0
sg74
I12
sba(igene
nodeGene
p1321
(dp1322
g73
I3
sg350
I51
sg70
I8
sg74
I11
sbasg375
(dp1323
g591
F0.0
sg592
F0.0
sg593
F0.0
sg594
I0
sg595
F0.0
sg596
F0.0
sg383
F0.0
sg597
F0.0
ssg383
F0.0
sg385
(lp1324
(igene
linkGene
p1325
(dp1326
g389
I01
sg350
I13
sg70
I0
sg74
I10
sg390
F-1.5196598332084232
sba(igene
linkGene
p1327
(dp1328
g389
I01
sg350
I14
sg70
I1
sg74
I10
sg390
F-0.853114713176087
sba(igene
linkGene
p1329
(dp1330
g389
I01
sg350
I15
sg70
I2
sg74
I10
sg390
F-0.9197950400892442
sba(igene
linkGene
p1331
(dp1332
g389
I01
sg350
I16
sg70
I3
sg74
I10
sg390
F-3.129718838931257
sba(igene
linkGene
p1333
(dp1334
g389
I01
sg350
I17
sg70
I4
sg74
I10
sg390
F-0.025695607993915237
sba(igene
linkGene
p1335
(dp1336
g389
I01
sg350
I18
sg70
I5
sg74
I10
sg390
F-1.173998764036746
sba(igene
linkGene
p1337
(dp1338
g389
I01
sg350
I19
sg70
I6
sg74
I10
sg390
F0.9534674586886904
sba(igene
linkGene
p1339
(dp1340
g389
I01
sg350
I20
sg70
I7
sg74
I10
sg390
F-3.0101754255499227
sba(igene
linkGene
p1341
(dp1342
g389
I01
sg350
I21
sg70
I8
sg74
I10
sg390
F-1.3802637350579288
sba(igene
linkGene
p1343
(dp1344
g389
I01
sg350
I22
sg70
I9
sg74
I10
sg390
F-0.8580175875370852
sba(igene
linkGene
p1345
(dp1346
g389
I01
sg350
I23
sg70
I0
sg74
I11
sg390
F-0.009389625088042308
sba(igene
linkGene
p1347
(dp1348
g389
I01
sg350
I24
sg70
I1
sg74
I11
sg390
F3.514179477232518
sba(igene
linkGene
p1349
(dp1350
g389
I01
sg350
I25
sg70
I2
sg74
I11
sg390
F0.4870078496722299
sba(igene
linkGene
p1351
(dp1352
g389
I01
sg350
I26
sg70
I3
sg74
I11
sg390
F0.679728333317543
sba(igene
linkGene
p1353
(dp1354
g389
I01
sg350
I27
sg70
I4
sg74
I11
sg390
F-1.8600018822315623
sba(igene
linkGene
p1355
(dp1356
g389
I01
sg350
I28
sg70
I5
sg74
I11
sg390
F2.5469738686079193
sba(igene
linkGene
p1357
(dp1358
g389
I01
sg350
I29
sg70
I6
sg74
I11
sg390
F0.7021979884876246
sba(igene
linkGene
p1359
(dp1360
g389
I01
sg350
I30
sg70
I7
sg74
I11
sg390
F0.8571450436986492
sba(igene
linkGene
p1361
(dp1362
g389
I00
sg350
I31
sg70
I8
sg74
I11
sg390
F-0.08004434805077354
sba(igene
linkGene
p1363
(dp1364
g389
I01
sg350
I32
sg70
I9
sg74
I11
sg390
F2.637777408455908
sba(igene
linkGene
p1365
(dp1366
g389
I00
sg350
I33
sg70
I0
sg74
I12
sg390
F-1.7561142181154281
sba(igene
linkGene
p1367
(dp1368
g389
I01
sg350
I34
sg70
I1
sg74
I12
sg390
F-0.8385613410256938
sba(igene
linkGene
p1369
(dp1370
g389
I01
sg350
I35
sg70
I2
sg74
I12
sg390
F3.161314069164888
sba(igene
linkGene
p1371
(dp1372
g389
I01
sg350
I36
sg70
I3
sg74
I12
sg390
F-0.8544192775492063
sba(igene
linkGene
p1373
(dp1374
g389
I01
sg350
I37
sg70
I4
sg74
I12
sg390
F-1.5323263300563217
sba(igene
linkGene
p1375
(dp1376
g389
I01
sg350
I38
sg70
I5
sg74
I12
sg390
F-2.0191083245878003
sba(igene
linkGene
p1377
(dp1378
g389
I01
sg350
I39
sg70
I6
sg74
I12
sg390
F-2.7742666624397043
sba(igene
linkGene
p1379
(dp1380
g389
I01
sg350
I40
sg70
I7
sg74
I12
sg390
F0.42291378220210907
sba(igene
linkGene
p1381
(dp1382
g389
I01
sg350
I41
sg70
I8
sg74
I12
sg390
F0.28279912395934836
sba(igene
linkGene
p1383
(dp1384
g389
I01
sg350
I42
sg70
I9
sg74
I12
sg390
F-0.6471160770770157
sba(igene
linkGene
p1385
(dp1386
g389
I01
sg350
I44
sg70
I12
sg74
I10
sg390
F0.5170945870571773
sba(igene
linkGene
p1387
(dp1388
g389
I01
sg350
I49
sg70
I0
sg74
I48
sg390
F1.0
sba(igene
linkGene
p1389
(dp1390
g389
I01
sg350
I50
sg70
I48
sg74
I12
sg390
F-1.7561142181154281
sba(igene
linkGene
p1391
(dp1392
g389
I01
sg350
I52
sg70
I8
sg74
I51
sg390
F1.0
sba(igene
linkGene
p1393
(dp1394
g389
I01
sg350
I53
sg70
I51
sg74
I11
sg390
F-0.08004434805077354
sbasg335
g6
sba(igenome
Genome
p1395
(dp1396
g346
(lp1397
(igene
nodeGene
p1398
(dp1399
g73
I0
sg350
I0
sg70
I0
sg74
I0
sba(igene
nodeGene
p1400
(dp1401
g73
I1
sg350
I1
sg70
I1
sg74
I0
sba(igene
nodeGene
p1402
(dp1403
g73
I1
sg350
I2
sg70
I2
sg74
I0
sba(igene
nodeGene
p1404
(dp1405
g73
I1
sg350
I3
sg70
I3
sg74
I0
sba(igene
nodeGene
p1406
(dp1407
g73
I1
sg350
I4
sg70
I4
sg74
I0
sba(igene
nodeGene
p1408
(dp1409
g73
I1
sg350
I5
sg70
I5
sg74
I0
sba(igene
nodeGene
p1410
(dp1411
g73
I1
sg350
I6
sg70
I6
sg74
I0
sba(igene
nodeGene
p1412
(dp1413
g73
I1
sg350
I7
sg70
I7
sg74
I0
sba(igene
nodeGene
p1414
(dp1415
g73
I1
sg350
I8
sg70
I8
sg74
I0
sba(igene
nodeGene
p1416
(dp1417
g73
I1
sg350
I9
sg70
I9
sg74
I0
sba(igene
nodeGene
p1418
(dp1419
g73
I2
sg350
I10
sg70
I0
sg74
I1
sba(igene
nodeGene
p1420
(dp1421
g73
I2
sg350
I11
sg70
I0
sg74
I2
sba(igene
nodeGene
p1422
(dp1423
g73
I2
sg350
I12
sg70
I0
sg74
I3
sba(igene
nodeGene
p1424
(dp1425
g73
I3
sg350
I59
sg70
I2
sg74
I11
sbasg375
(dp1426
S't*p2/d'
p1427
F-644.216253864191
sS'prof/dd'
p1428
F-0.81984010576987
sS'profit'
p1429
F-0.39686000000002863
sS'trades'
p1430
I1980
sS'winratio'
p1431
F0.47525252525252526
sS'drawdown'
p1432
F0.4840700000000094
sg383
F0.0
sS'p2/dd'
p1433
F-0.325361744375854
ssg383
F0.0
sg385
(lp1434
(igene
linkGene
p1435
(dp1436
g389
I01
sg350
I13
sg70
I0
sg74
I10
sg390
F2.0580987286559074
sba(igene
linkGene
p1437
(dp1438
g389
I01
sg350
I14
sg70
I1
sg74
I10
sg390
F-1.1985263196647857
sba(igene
linkGene
p1439
(dp1440
g389
I01
sg350
I15
sg70
I2
sg74
I10
sg390
F-0.5874293287337369
sba(igene
linkGene
p1441
(dp1442
g389
I01
sg350
I16
sg70
I3
sg74
I10
sg390
F-1.6257848205925338
sba(igene
linkGene
p1443
(dp1444
g389
I01
sg350
I17
sg70
I4
sg74
I10
sg390
F-1.7075135068275766
sba(igene
linkGene
p1445
(dp1446
g389
I01
sg350
I18
sg70
I5
sg74
I10
sg390
F3.047972761788764
sba(igene
linkGene
p1447
(dp1448
g389
I01
sg350
I19
sg70
I6
sg74
I10
sg390
F1.2546577192498274
sba(igene
linkGene
p1449
(dp1450
g389
I01
sg350
I20
sg70
I7
sg74
I10
sg390
F0.39380924404522477
sba(igene
linkGene
p1451
(dp1452
g389
I01
sg350
I21
sg70
I8
sg74
I10
sg390
F0.5437561787422787
sba(igene
linkGene
p1453
(dp1454
g389
I01
sg350
I22
sg70
I9
sg74
I10
sg390
F1.8643553983712136
sba(igene
linkGene
p1455
(dp1456
g389
I01
sg350
I23
sg70
I0
sg74
I11
sg390
F0.9570621657695134
sba(igene
linkGene
p1457
(dp1458
g389
I01
sg350
I24
sg70
I1
sg74
I11
sg390
F-1.516362627565517
sba(igene
linkGene
p1459
(dp1460
g389
I00
sg350
I25
sg70
I2
sg74
I11
sg390
F2.0005941832069007
sba(igene
linkGene
p1461
(dp1462
g389
I01
sg350
I26
sg70
I3
sg74
I11
sg390
F-0.5996078899048154
sba(igene
linkGene
p1463
(dp1464
g389
I01
sg350
I27
sg70
I4
sg74
I11
sg390
F-0.9348267462842257
sba(igene
linkGene
p1465
(dp1466
g389
I01
sg350
I28
sg70
I5
sg74
I11
sg390
F1.9050829147128703
sba(igene
linkGene
p1467
(dp1468
g389
I01
sg350
I29
sg70
I6
sg74
I11
sg390
F-3.58918007983254
sba(igene
linkGene
p1469
(dp1470
g389
I01
sg350
I30
sg70
I7
sg74
I11
sg390
F0.10097435824630363
sba(igene
linkGene
p1471
(dp1472
g389
I01
sg350
I31
sg70
I8
sg74
I11
sg390
F0.8400038601048765
sba(igene
linkGene
p1473
(dp1474
g389
I01
sg350
I32
sg70
I9
sg74
I11
sg390
F0.3426689280466033
sba(igene
linkGene
p1475
(dp1476
g389
I01
sg350
I33
sg70
I0
sg74
I12
sg390
F-1.9132846435387685
sba(igene
linkGene
p1477
(dp1478
g389
I01
sg350
I34
sg70
I1
sg74
I12
sg390
F-1.283253431062151
sba(igene
linkGene
p1479
(dp1480
g389
I01
sg350
I35
sg70
I2
sg74
I12
sg390
F0.42835926626753007
sba(igene
linkGene
p1481
(dp1482
g389
I01
sg350
I36
sg70
I3
sg74
I12
sg390
F2.4744812966676384
sba(igene
linkGene
p1483
(dp1484
g389
I01
sg350
I37
sg70
I4
sg74
I12
sg390
F-1.7780065086189292
sba(igene
linkGene
p1485
(dp1486
g389
I01
sg350
I38
sg70
I5
sg74
I12
sg390
F-2.1846262058596633
sba(igene
linkGene
p1487
(dp1488
g389
I01
sg350
I39
sg70
I6
sg74
I12
sg390
F0.7048246064693044
sba(igene
linkGene
p1489
(dp1490
g389
I01
sg350
I40
sg70
I7
sg74
I12
sg390
F0.22345675433203338
sba(igene
linkGene
p1491
(dp1492
g389
I01
sg350
I41
sg70
I8
sg74
I12
sg390
F2.8274354478111956
sba(igene
linkGene
p1493
(dp1494
g389
I01
sg350
I42
sg70
I9
sg74
I12
sg390
F0.4621810576693014
sba(igene
linkGene
p1495
(dp1496
g389
I01
sg350
I57
sg70
I10
sg74
I12
sg390
F-0.04466328582233725
sba(igene
linkGene
p1497
(dp1498
g389
I01
sg350
I58
sg70
I10
sg74
I11
sg390
F1.3022670369334524
sba(igene
linkGene
p1499
(dp1500
g389
I01
sg350
I60
sg70
I2
sg74
I59
sg390
F1.0
sba(igene
linkGene
p1501
(dp1502
g389
I01
sg350
I61
sg70
I59
sg74
I11
sg390
F2.0005941832069007
sbasg335
g6
sba(igenome
Genome
p1503
(dp1504
g346
(lp1505
(igene
nodeGene
p1506
(dp1507
g73
I0
sg350
I0
sg70
I0
sg74
I0
sba(igene
nodeGene
p1508
(dp1509
g73
I1
sg350
I1
sg70
I1
sg74
I0
sba(igene
nodeGene
p1510
(dp1511
g73
I1
sg350
I2
sg70
I2
sg74
I0
sba(igene
nodeGene
p1512
(dp1513
g73
I1
sg350
I3
sg70
I3
sg74
I0
sba(igene
nodeGene
p1514
(dp1515
g73
I1
sg350
I4
sg70
I4
sg74
I0
sba(igene
nodeGene
p1516
(dp1517
g73
I1
sg350
I5
sg70
I5
sg74
I0
sba(igene
nodeGene
p1518
(dp1519
g73
I1
sg350
I6
sg70
I6
sg74
I0
sba(igene
nodeGene
p1520
(dp1521
g73
I1
sg350
I7
sg70
I7
sg74
I0
sba(igene
nodeGene
p1522
(dp1523
g73
I1
sg350
I8
sg70
I8
sg74
I0
sba(igene
nodeGene
p1524
(dp1525
g73
I1
sg350
I9
sg70
I9
sg74
I0
sba(igene
nodeGene
p1526
(dp1527
g73
I2
sg350
I10
sg70
I0
sg74
I1
sba(igene
nodeGene
p1528
(dp1529
g73
I2
sg350
I11
sg70
I0
sg74
I2
sba(igene
nodeGene
p1530
(dp1531
g73
I2
sg350
I12
sg70
I0
sg74
I3
sba(igene
nodeGene
p1532
(dp1533
g73
I3
sg350
I62
sg70
I4
sg74
I11
sbasg375
(dp1534
g1427
F-0.08328000000000006
sg1428
F-1.0
sg1429
F-0.08328000000000006
sg1430
I1
sg1431
F0.0
sg1432
F0.08328000000000006
sg383
F0.0
sg1433
F-0.08328000000000006
ssg383
F0.0
sg385
(lp1535
(igene
linkGene
p1536
(dp1537
g389
I01
sg350
I13
sg70
I0
sg74
I10
sg390
F-1.1907459497321147
sba(igene
linkGene
p1538
(dp1539
g389
I01
sg350
I14
sg70
I1
sg74
I10
sg390
F-1.870531194418482
sba(igene
linkGene
p1540
(dp1541
g389
I01
sg350
I15
sg70
I2
sg74
I10
sg390
F2.4174122783171716
sba(igene
linkGene
p1542
(dp1543
g389
I01
sg350
I16
sg70
I3
sg74
I10
sg390
F2.3837897076733734
sba(igene
linkGene
p1544
(dp1545
g389
I01
sg350
I17
sg70
I4
sg74
I10
sg390
F-1.7826423618988223
sba(igene
linkGene
p1546
(dp1547
g389
I01
sg350
I18
sg70
I5
sg74
I10
sg390
F1.7926580507711178
sba(igene
linkGene
p1548
(dp1549
g389
I01
sg350
I19
sg70
I6
sg74
I10
sg390
F2.570225893093281
sba(igene
linkGene
p1550
(dp1551
g389
I01
sg350
I20
sg70
I7
sg74
I10
sg390
F1.3174539800369247
sba(igene
linkGene
p1552
(dp1553
g389
I01
sg350
I21
sg70
I8
sg74
I10
sg390
F1.614645275249109
sba(igene
linkGene
p1554
(dp1555
g389
I01
sg350
I22
sg70
I9
sg74
I10
sg390
F-2.414126821419126
sba(igene
linkGene
p1556
(dp1557
g389
I01
sg350
I23
sg70
I0
sg74
I11
sg390
F-1.862193139629671
sba(igene
linkGene
p1558
(dp1559
g389
I01
sg350
I24
sg70
I1
sg74
I11
sg390
F-0.9738966626778773
sba(igene
linkGene
p1560
(dp1561
g389
I01
sg350
I25
sg70
I2
sg74
I11
sg390
F-2.137796590058537
sba(igene
linkGene
p1562
(dp1563
g389
I01
sg350
I26
sg70
I3
sg74
I11
sg390
F-2.065088999369915
sba(igene
linkGene
p1564
(dp1565
g389
I00
sg350
I27
sg70
I4
sg74
I11
sg390
F-1.960575652145223
sba(igene
linkGene
p1566
(dp1567
g389
I01
sg350
I28
sg70
I5
sg74
I11
sg390
F-1.4591341732894647
sba(igene
linkGene
p1568
(dp1569
g389
I01
sg350
I29
sg70
I6
sg74
I11
sg390
F-0.8368099753698368
sba(igene
linkGene
p1570
(dp1571
g389
I01
sg350
I30
sg70
I7
sg74
I11
sg390
F2.196309112797831
sba(igene
linkGene
p1572
(dp1573
g389
I01
sg350
I31
sg70
I8
sg74
I11
sg390
F2.395610287894248
sba(igene
linkGene
p1574
(dp1575
g389
I01
sg350
I32
sg70
I9
sg74
I11
sg390
F2.526349108338031
sba(igene
linkGene
p1576
(dp1577
g389
I01
sg350
I33
sg70
I0
sg74
I12
sg390
F1.6789890984525107
sba(igene
linkGene
p1578
(dp1579
g389
I01
sg350
I34
sg70
I1
sg74
I12
sg390
F-0.8334233637472883
sba(igene
linkGene
p1580
(dp1581
g389
I01
sg350
I35
sg70
I2
sg74
I12
sg390
F-1.646918704561806
sba(igene
linkGene
p1582
(dp1583
g389
I01
sg350
I36
sg70
I3
sg74
I12
sg390
F-0.009758261846112504
sba(igene
linkGene
p1584
(dp1585
g389
I01
sg350
I37
sg70
I4
sg74
I12
sg390
F-3.368819676830079
sba(igene
linkGene
p1586
(dp1587
g389
I01
sg350
I38
sg70
I5
sg74
I12
sg390
F0.7991842127364619
sba(igene
linkGene
p1588
(dp1589
g389
I01
sg350
I39
sg70
I6
sg74
I12
sg390
F-2.6054656742915574
sba(igene
linkGene
p1590
(dp1591
g389
I01
sg350
I40
sg70
I7
sg74
I12
sg390
F-1.0072458871355263
sba(igene
linkGene
p1592
(dp1593
g389
I01
sg350
I41
sg70
I8
sg74
I12
sg390
F-0.7217126085433294
sba(igene
linkGene
p1594
(dp1595
g389
I01
sg350
I42
sg70
I9
sg74
I12
sg390
F-2.0894728464744645
sba(igene
linkGene
p1596
(dp1597
g389
I01
sg350
I63
sg70
I4
sg74
I62
sg390
F1.0
sba(igene
linkGene
p1598
(dp1599
g389
I01
sg350
I64
sg70
I62
sg74
I11
sg390
F-1.960575652145223
sbasg335
g6
sba(igenome
Genome
p1600
(dp1601
g346
(lp1602
(igene
nodeGene
p1603
(dp1604
g73
I0
sg350
I0
sg70
I0
sg74
I0
sba(igene
nodeGene
p1605
(dp1606
g73
I1
sg350
I1
sg70
I1
sg74
I0
sba(igene
nodeGene
p1607
(dp1608
g73
I1
sg350
I2
sg70
I2
sg74
I0
sba(igene
nodeGene
p1609
(dp1610
g73
I1
sg350
I3
sg70
I3
sg74
I0
sba(igene
nodeGene
p1611
(dp1612
g73
I1
sg350
I4
sg70
I4
sg74
I0
sba(igene
nodeGene
p1613
(dp1614
g73
I1
sg350
I5
sg70
I5
sg74
I0
sba(igene
nodeGene
p1615
(dp1616
g73
I1
sg350
I6
sg70
I6
sg74
I0
sba(igene
nodeGene
p1617
(dp1618
g73
I1
sg350
I7
sg70
I7
sg74
I0
sba(igene
nodeGene
p1619
(dp1620
g73
I1
sg350
I8
sg70
I8
sg74
I0
sba(igene
nodeGene
p1621
(dp1622
g73
I1
sg350
I9
sg70
I9
sg74
I0
sba(igene
nodeGene
p1623
(dp1624
g73
I2
sg350
I10
sg70
I0
sg74
I1
sba(igene
nodeGene
p1625
(dp1626
g73
I2
sg350
I11
sg70
I0
sg74
I2
sba(igene
nodeGene
p1627
(dp1628
g73
I2
sg350
I12
sg70
I0
sg74
I3
sba(igene
nodeGene
p1629
(dp1630
g73
I3
sg350
I65
sg70
I6
sg74
I11
sba(igene
nodeGene
p1631
(dp1632
g73
I3
sg350
I68
sg70
I5
sg74
I11
sbasg375
(dp1633
g1427
F0.0
sg1428
F0.0
sg1429
F0.0
sg1430
I0
sg1431
F0.0
sg1432
F0.0
sg383
F0.0
sg1433
F0.0
ssg383
F0.0
sg385
(lp1634
(igene
linkGene
p1635
(dp1636
g389
I01
sg350
I13
sg70
I0
sg74
I10
sg390
F-1.610780975450798
sba(igene
linkGene
p1637
(dp1638
g389
I01
sg350
I14
sg70
I1
sg74
I10
sg390
F0.7318595054433197
sba(igene
linkGene
p1639
(dp1640
g389
I01
sg350
I15
sg70
I2
sg74
I10
sg390
F2.055122067568001
sba(igene
linkGene
p1641
(dp1642
g389
I01
sg350
I16
sg70
I3
sg74
I10
sg390
F2.102041816680382
sba(igene
linkGene
p1643
(dp1644
g389
I01
sg350
I17
sg70
I4
sg74
I10
sg390
F-2.3428276215837807
sba(igene
linkGene
p1645
(dp1646
g389
I01
sg350
I18
sg70
I5
sg74
I10
sg390
F0.2788731692982865
sba(igene
linkGene
p1647
(dp1648
g389
I01
sg350
I19
sg70
I6
sg74
I10
sg390
F-3.3325281410656933
sba(igene
linkGene
p1649
(dp1650
g389
I01
sg350
I20
sg70
I7
sg74
I10
sg390
F1.5832516168131958
sba(igene
linkGene
p1651
(dp1652
g389
I01
sg350
I21
sg70
I8
sg74
I10
sg390
F-2.6554918091361195
sba(igene
linkGene
p1653
(dp1654
g389
I01
sg350
I22
sg70
I9
sg74
I10
sg390
F1.1129829327533105
sba(igene
linkGene
p1655
(dp1656
g389
I01
sg350
I23
sg70
I0
sg74
I11
sg390
F2.807890545765643
sba(igene
linkGene
p1657
(dp1658
g389
I01
sg350
I24
sg70
I1
sg74
I11
sg390
F-1.4213375144267575
sba(igene
linkGene
p1659
(dp1660
g389
I01
sg350
I25
sg70
I2
sg74
I11
sg390
F-2.5130402760665156
sba(igene
linkGene
p1661
(dp1662
g389
I01
sg350
I26
sg70
I3
sg74
I11
sg390
F-2.2861285328549497
sba(igene
linkGene
p1663
(dp1664
g389
I01
sg350
I27
sg70
I4
sg74
I11
sg390
F1.7513406558052418
sba(igene
linkGene
p1665
(dp1666
g389
I00
sg350
I28
sg70
I5
sg74
I11
sg390
F-1.3808076693124822
sba(igene
linkGene
p1667
(dp1668
g389
I00
sg350
I29
sg70
I6
sg74
I11
sg390
F-0.41316118528447165
sba(igene
linkGene
p1669
(dp1670
g389
I01
sg350
I30
sg70
I7
sg74
I11
sg390
F0.5638967863087145
sba(igene
linkGene
p1671
(dp1672
g389
I01
sg350
I31
sg70
I8
sg74
I11
sg390
F0.37347417211165224
sba(igene
linkGene
p1673
(dp1674
g389
I01
sg350
I32
sg70
I9
sg74
I11
sg390
F-3.050037646027902
sba(igene
linkGene
p1675
(dp1676
g389
I01
sg350
I33
sg70
I0
sg74
I12
sg390
F3.499065692157215
sba(igene
linkGene
p1677
(dp1678
g389
I01
sg350
I34
sg70
I1
sg74
I12
sg390
F2.9519266350687188
sba(igene
linkGene
p1679
(dp1680
g389
I01
sg350
I35
sg70
I2
sg74
I12
sg390
F0.36592269831588187
sba(igene
linkGene
p1681
(dp1682
g389
I01
sg350
I36
sg70
I3
sg74
I12
sg390
F-1.45908387861162
sba(igene
linkGene
p1683
(dp1684
g389
I01
sg350
I37
sg70
I4
sg74
I12
sg390
F1.028212894487217
sba(igene
linkGene
p1685
(dp1686
g389
I01
sg350
I38
sg70
I5
sg74
I12
sg390
F0.39951594078399033
sba(igene
linkGene
p1687
(dp1688
g389
I01
sg350
I39
sg70
I6
sg74
I12
sg390
F1.7942307448668602
sba(igene
linkGene
p1689
(dp1690
g389
I01
sg350
I40
sg70
I7
sg74
I12
sg390
F-2.418430078345
sba(igene
linkGene
p1691
(dp1692
g389
I01
sg350
I41
sg70
I8
sg74
I12
sg390
F-0.3334300159938579
sba(igene
linkGene
p1693
(dp1694
g389
I01
sg350
I42
sg70
I9
sg74
I12
sg390
F-0.6987719902727285
sba(igene
linkGene
p1695
(dp1696
g389
I01
sg350
I43
sg70
I11
sg74
I11
sg390
F-0.9087738979783175
sba(igene
linkGene
p1697
(dp1698
g389
I01
sg350
I66
sg70
I6
sg74
I65
sg390
F1.0
sba(igene
linkGene
p1699
(dp1700
g389
I01
sg350
I67
sg70
I65
sg74
I11
sg390
F-0.41316118528447165
sba(igene
linkGene
p1701
(dp1702
g389
I01
sg350
I69
sg70
I5
sg74
I68
sg390
F1.0
sba(igene
linkGene
p1703
(dp1704
g389
I01
sg350
I70
sg70
I68
sg74
I11
sg390
F-1.3808076693124822
sbasg335
g6
sba(igenome
Genome
p1705
(dp1706
g346
(lp1707
(igene
nodeGene
p1708
(dp1709
g73
I0
sg350
I0
sg70
I0
sg74
I0
sba(igene
nodeGene
p1710
(dp1711
g73
I1
sg350
I1
sg70
I1
sg74
I0
sba(igene
nodeGene
p1712
(dp1713
g73
I1
sg350
I2
sg70
I2
sg74
I0
sba(igene
nodeGene
p1714
(dp1715
g73
I1
sg350
I3
sg70
I3
sg74
I0
sba(igene
nodeGene
p1716
(dp1717
g73
I1
sg350
I4
sg70
I4
sg74
I0
sba(igene
nodeGene
p1718
(dp1719
g73
I1
sg350
I5
sg70
I5
sg74
I0
sba(igene
nodeGene
p1720
(dp1721
g73
I1
sg350
I6
sg70
I6
sg74
I0
sba(igene
nodeGene
p1722
(dp1723
g73
I1
sg350
I7
sg70
I7
sg74
I0
sba(igene
nodeGene
p1724
(dp1725
g73
I1
sg350
I8
sg70
I8
sg74
I0
sba(igene
nodeGene
p1726
(dp1727
g73
I1
sg350
I9
sg70
I9
sg74
I0
sba(igene
nodeGene
p1728
(dp1729
g73
I2
sg350
I10
sg70
I0
sg74
I1
sba(igene
nodeGene
p1730
(dp1731
g73
I2
sg350
I11
sg70
I0
sg74
I2
sba(igene
nodeGene
p1732
(dp1733
g73
I2
sg350
I12
sg70
I0
sg74
I3
sba(igene
nodeGene
p1734
(dp1735
g73
I3
sg350
I71
sg70
I6
sg74
I12
sbasg375
(dp1736
S't*p2/d'
p1737
F-0.10578000000000003
sS'prof/dd'
p1738
F-1.0
sS'profit'
p1739
F-0.10578000000000003
sS'trades'
p1740
I1
sS'winratio'
p1741
F0.0
sS'drawdown'
p1742
F0.10578000000000003
sg383
F0.0
sS'p2/dd'
p1743
F-0.10578000000000003
ssg383
F0.0
sg385
(lp1744
(igene
linkGene
p1745
(dp1746
g389
I01
sg350
I13
sg70
I0
sg74
I10
sg390
F-1.1440783610651555
sba(igene
linkGene
p1747
(dp1748
g389
I01
sg350
I14
sg70
I1
sg74
I10
sg390
F2.357462331953948
sba(igene
linkGene
p1749
(dp1750
g389
I01
sg350
I15
sg70
I2
sg74
I10
sg390
F2.621358892479196
sba(igene
linkGene
p1751
(dp1752
g389
I01
sg350
I16
sg70
I3
sg74
I10
sg390
F-2.620496205613313
sba(igene
linkGene
p1753
(dp1754
g389
I01
sg350
I17
sg70
I4
sg74
I10
sg390
F-1.3936218403922989
sba(igene
linkGene
p1755
(dp1756
g389
I01
sg350
I18
sg70
I5
sg74
I10
sg390
F-1.132000941897619
sba(igene
linkGene
p1757
(dp1758
g389
I01
sg350
I19
sg70
I6
sg74
I10
sg390
F-1.5239603145416858
sba(igene
linkGene
p1759
(dp1760
g389
I01
sg350
I20
sg70
I7
sg74
I10
sg390
F0.3203649685207137
sba(igene
linkGene
p1761
(dp1762
g389
I01
sg350
I21
sg70
I8
sg74
I10
sg390
F-2.9262713214076435
sba(igene
linkGene
p1763
(dp1764
g389
I01
sg350
I22
sg70
I9
sg74
I10
sg390
F-1.149892326012957
sba(igene
linkGene
p1765
(dp1766
g389
I01
sg350
I23
sg70
I0
sg74
I11
sg390
F0.22813419098429133
sba(igene
linkGene
p1767
(dp1768
g389
I01
sg350
I24
sg70
I1
sg74
I11
sg390
F0.7572342329900913
sba(igene
linkGene
p1769
(dp1770
g389
I01
sg350
I25
sg70
I2
sg74
I11
sg390
F1.930103796002672
sba(igene
linkGene
p1771
(dp1772
g389
I01
sg350
I26
sg70
I3
sg74
I11
sg390
F3.074666898927132
sba(igene
linkGene
p1773
(dp1774
g389
I01
sg350
I27
sg70
I4
sg74
I11
sg390
F0.7215725385722609
sba(igene
linkGene
p1775
(dp1776
g389
I01
sg350
I28
sg70
I5
sg74
I11
sg390
F-0.9387209610556055
sba(igene
linkGene
p1777
(dp1778
g389
I01
sg350
I29
sg70
I6
sg74
I11
sg390
F0.5028736928778901
sba(igene
linkGene
p1779
(dp1780
g389
I01
sg350
I30
sg70
I7
sg74
I11
sg390
F-1.6481666437093612
sba(igene
linkGene
p1781
(dp1782
g389
I01
sg350
I31
sg70
I8
sg74
I11
sg390
F-1.010876257971902
sba(igene
linkGene
p1783
(dp1784
g389
I01
sg350
I32
sg70
I9
sg74
I11
sg390
F2.6553013383663577
sba(igene
linkGene
p1785
(dp1786
g389
I01
sg350
I33
sg70
I0
sg74
I12
sg390
F-2.3276709996542486
sba(igene
linkGene
p1787
(dp1788
g389
I01
sg350
I34
sg70
I1
sg74
I12
sg390
F0.48451616116368557
sba(igene
linkGene
p1789
(dp1790
g389
I01
sg350
I35
sg70
I2
sg74
I12
sg390
F0.9749916379984169
sba(igene
linkGene
p1791
(dp1792
g389
I01
sg350
I36
sg70
I3
sg74
I12
sg390
F3.1270609669806166
sba(igene
linkGene
p1793
(dp1794
g389
I01
sg350
I37
sg70
I4
sg74
I12
sg390
F0.4308229459028739
sba(igene
linkGene
p1795
(dp1796
g389
I01
sg350
I38
sg70
I5
sg74
I12
sg390
F-1.4333021937169823
sba(igene
linkGene
p1797
(dp1798
g389
I00
sg350
I39
sg70
I6
sg74
I12
sg390
F-1.1595341482486639
sba(igene
linkGene
p1799
(dp1800
g389
I01
sg350
I40
sg70
I7
sg74
I12
sg390
F1.0723750451609932
sba(igene
linkGene
p1801
(dp1802
g389
I01
sg350
I41
sg70
I8
sg74
I12
sg390
F1.062398780691464
sba(igene
linkGene
p1803
(dp1804
g389
I01
sg350
I42
sg70
I9
sg74
I12
sg390
F-1.4855060246929765
sba(igene
linkGene
p1805
(dp1806
g389
I01
sg350
I72
sg70
I6
sg74
I71
sg390
F1.0
sba(igene
linkGene
p1807
(dp1808
g389
I01
sg350
I73
sg70
I71
sg74
I12
sg390
F-1.1595341482486639
sbasg335
g6
sba(igenome
Genome
p1809
(dp1810
g346
(lp1811
(igene
nodeGene
p1812
(dp1813
g73
I0
sg350
I0
sg70
I0
sg74
I0
sba(igene
nodeGene
p1814
(dp1815
g73
I1
sg350
I1
sg70
I1
sg74
I0
sba(igene
nodeGene
p1816
(dp1817
g73
I1
sg350
I2
sg70
I2
sg74
I0
sba(igene
nodeGene
p1818
(dp1819
g73
I1
sg350
I3
sg70
I3
sg74
I0
sba(igene
nodeGene
p1820
(dp1821
g73
I1
sg350
I4
sg70
I4
sg74
I0
sba(igene
nodeGene
p1822
(dp1823
g73
I1
sg350
I5
sg70
I5
sg74
I0
sba(igene
nodeGene
p1824
(dp1825
g73
I1
sg350
I6
sg70
I6
sg74
I0
sba(igene
nodeGene
p1826
(dp1827
g73
I1
sg350
I7
sg70
I7
sg74
I0
sba(igene
nodeGene
p1828
(dp1829
g73
I1
sg350
I8
sg70
I8
sg74
I0
sba(igene
nodeGene
p1830
(dp1831
g73
I1
sg350
I9
sg70
I9
sg74
I0
sba(igene
nodeGene
p1832
(dp1833
g73
I2
sg350
I10
sg70
I0
sg74
I1
sba(igene
nodeGene
p1834
(dp1835
g73
I2
sg350
I11
sg70
I0
sg74
I2
sba(igene
nodeGene
p1836
(dp1837
g73
I2
sg350
I12
sg70
I0
sg74
I3
sba(igene
nodeGene
p1838
(dp1839
g73
I3
sg350
I59
sg70
I2
sg74
I11
sba(igene
nodeGene
p1840
(dp1841
g73
I3
sg350
I75
sg70
I1
sg74
I11
sbasg375
(dp1842
g1737
F0.0
sg1738
F0.0
sg1739
F0.0
sg1740
I0
sg1741
F0.0
sg1742
F0.0
sg383
F0.0
sg1743
F0.0
ssg383
F0.0
sg385
(lp1843
(igene
linkGene
p1844
(dp1845
g389
I01
sg350
I13
sg70
I0
sg74
I10
sg390
F2.0070857109676896
sba(igene
linkGene
p1846
(dp1847
g389
I01
sg350
I14
sg70
I1
sg74
I10
sg390
F-1.2784097481047965
sba(igene
linkGene
p1848
(dp1849
g389
I01
sg350
I15
sg70
I2
sg74
I10
sg390
F3.6580616993136834
sba(igene
linkGene
p1850
(dp1851
g389
I01
sg350
I16
sg70
I3
sg74
I10
sg390
F1.8069497938358001
sba(igene
linkGene
p1852
(dp1853
g389
I01
sg350
I17
sg70
I4
sg74
I10
sg390
F-1.077892958774282
sba(igene
linkGene
p1854
(dp1855
g389
I01
sg350
I18
sg70
I5
sg74
I10
sg390
F-2.0088890866626166
sba(igene
linkGene
p1856
(dp1857
g389
I01
sg350
I19
sg70
I6
sg74
I10
sg390
F-1.0223865908518115
sba(igene
linkGene
p1858
(dp1859
g389
I01
sg350
I20
sg70
I7
sg74
I10
sg390
F2.801876464833401
sba(igene
linkGene
p1860
(dp1861
g389
I01
sg350
I21
sg70
I8
sg74
I10
sg390
F-1.704217417801214
sba(igene
linkGene
p1862
(dp1863
g389
I01
sg350
I22
sg70
I9
sg74
I10
sg390
F-0.6332917757018659
sba(igene
linkGene
p1864
(dp1865
g389
I01
sg350
I23
sg70
I0
sg74
I11
sg390
F0.00952970307534784
sba(igene
linkGene
p1866
(dp1867
g389
I00
sg350
I24
sg70
I1
sg74
I11
sg390
F-2.6867410861799352
sba(igene
linkGene
p1868
(dp1869
g389
I00
sg350
I25
sg70
I2
sg74
I11
sg390
F0.29530805043364383
sba(igene
linkGene
p1870
(dp1871
g389
I01
sg350
I26
sg70
I3
sg74
I11
sg390
F0.26965593436278024
sba(igene
linkGene
p1872
(dp1873
g389
I01
sg350
I27
sg70
I4
sg74
I11
sg390
F0.9409333446695931
sba(igene
linkGene
p1874
(dp1875
g389
I01
sg350
I28
sg70
I5
sg74
I11
sg390
F1.555024931798247
sba(igene
linkGene
p1876
(dp1877
g389
I01
sg350
I29
sg70
I6
sg74
I11
sg390
F-0.9969931166541812
sba(igene
linkGene
p1878
(dp1879
g389
I01
sg350
I30
sg70
I7
sg74
I11
sg390
F-1.013636825323668
sba(igene
linkGene
p1880
(dp1881
g389
I01
sg350
I31
sg70
I8
sg74
I11
sg390
F-0.5669533011883512
sba(igene
linkGene
p1882
(dp1883
g389
I01
sg350
I32
sg70
I9
sg74
I11
sg390
F-0.3474245539840435
sba(igene
linkGene
p1884
(dp1885
g389
I01
sg350
I33
sg70
I0
sg74
I12
sg390
F3.3130704083425484
sba(igene
linkGene
p1886
(dp1887
g389
I01
sg350
I34
sg70
I1
sg74
I12
sg390
F0.8228561614424345
sba(igene
linkGene
p1888
(dp1889
g389
I01
sg350
I35
sg70
I2
sg74
I12
sg390
F-3.1158477024991265
sba(igene
linkGene
p1890
(dp1891
g389
I01
sg350
I36
sg70
I3
sg74
I12
sg390
F1.7428103775386519
sba(igene
linkGene
p1892
(dp1893
g389
I01
sg350
I37
sg70
I4
sg74
I12
sg390
F2.16109001374747
sba(igene
linkGene
p1894
(dp1895
g389
I01
sg350
I38
sg70
I5
sg74
I12
sg390
F-2.187851686189549
sba(igene
linkGene
p1896
(dp1897
g389
I01
sg350
I39
sg70
I6
sg74
I12
sg390
F-1.8574392862817746
sba(igene
linkGene
p1898
(dp1899
g389
I01
sg350
I40
sg70
I7
sg74
I12
sg390
F0.4781275351099157
sba(igene
linkGene
p1900
(dp1901
g389
I01
sg350
I41
sg70
I8
sg74
I12
sg390
F-2.380260856672839
sba(igene
linkGene
p1902
(dp1903
g389
I01
sg350
I42
sg70
I9
sg74
I12
sg390
F-2.445369534215636
sba(igene
linkGene
p1904
(dp1905
g389
I01
sg350
I74
sg70
I11
sg74
I10
sg390
F0.009108297620936234
sba(igene
linkGene
p1906
(dp1907
g389
I01
sg350
I60
sg70
I2
sg74
I59
sg390
F1.0
sba(igene
linkGene
p1908
(dp1909
g389
I01
sg350
I61
sg70
I59
sg74
I11
sg390
F0.29530805043364383
sba(igene
linkGene
p1910
(dp1911
g389
I01
sg350
I76
sg70
I1
sg74
I75
sg390
F1.0
sba(igene
linkGene
p1912
(dp1913
g389
I01
sg350
I77
sg70
I75
sg74
I11
sg390
F-2.6867410861799352
sbasg335
g6
sba(igenome
Genome
p1914
(dp1915
g346
(lp1916
(igene
nodeGene
p1917
(dp1918
g73
I0
sg350
I0
sg70
I0
sg74
I0
sba(igene
nodeGene
p1919
(dp1920
g73
I1
sg350
I1
sg70
I1
sg74
I0
sba(igene
nodeGene
p1921
(dp1922
g73
I1
sg350
I2
sg70
I2
sg74
I0
sba(igene
nodeGene
p1923
(dp1924
g73
I1
sg350
I3
sg70
I3
sg74
I0
sba(igene
nodeGene
p1925
(dp1926
g73
I1
sg350
I4
sg70
I4
sg74
I0
sba(igene
nodeGene
p1927
(dp1928
g73
I1
sg350
I5
sg70
I5
sg74
I0
sba(igene
nodeGene
p1929
(dp1930
g73
I1
sg350
I6
sg70
I6
sg74
I0
sba(igene
nodeGene
p1931
(dp1932
g73
I1
sg350
I7
sg70
I7
sg74
I0
sba(igene
nodeGene
p1933
(dp1934
g73
I1
sg350
I8
sg70
I8
sg74
I0
sba(igene
nodeGene
p1935
(dp1936
g73
I1
sg350
I9
sg70
I9
sg74
I0
sba(igene
nodeGene
p1937
(dp1938
g73
I2
sg350
I10
sg70
I0
sg74
I1
sba(igene
nodeGene
p1939
(dp1940
g73
I2
sg350
I11
sg70
I0
sg74
I2
sba(igene
nodeGene
p1941
(dp1942
g73
I2
sg350
I12
sg70
I0
sg74
I3
sba(igene
nodeGene
p1943
(dp1944
g73
I3
sg350
I79
sg70
I8
sg74
I12
sbasg375
(dp1945
g1737
F0.0
sg1738
F0.0
sg1739
F0.0
sg1740
I0
sg1741
F0.0
sg1742
F0.0
sg383
F0.0
sg1743
F0.0
ssg383
F0.0
sg385
(lp1946
(igene
linkGene
p1947
(dp1948
g389
I01
sg350
I13
sg70
I0
sg74
I10
sg390
F2.0661165981869885
sba(igene
linkGene
p1949
(dp1950
g389
I01
sg350
I14
sg70
I1
sg74
I10
sg390
F1.2559248599647752
sba(igene
linkGene
p1951
(dp1952
g389
I01
sg350
I15
sg70
I2
sg74
I10
sg390
F-0.008561510967524777
sba(igene
linkGene
p1953
(dp1954
g389
I01
sg350
I16
sg70
I3
sg74
I10
sg390
F-0.8354382727460026
sba(igene
linkGene
p1955
(dp1956
g389
I01
sg350
I17
sg70
I4
sg74
I10
sg390
F-0.6304009700766628
sba(igene
linkGene
p1957
(dp1958
g389
I01
sg350
I18
sg70
I5
sg74
I10
sg390
F1.8566797493903076
sba(igene
linkGene
p1959
(dp1960
g389
I01
sg350
I19
sg70
I6
sg74
I10
sg390
F1.7626492555716924
sba(igene
linkGene
p1961
(dp1962
g389
I01
sg350
I20
sg70
I7
sg74
I10
sg390
F-0.3435542923177144
sba(igene
linkGene
p1963
(dp1964
g389
I01
sg350
I21
sg70
I8
sg74
I10
sg390
F0.8861361576781595
sba(igene
linkGene
p1965
(dp1966
g389
I01
sg350
I22
sg70
I9
sg74
I10
sg390
F2.4074276430785293
sba(igene
linkGene
p1967
(dp1968
g389
I01
sg350
I23
sg70
I0
sg74
I11
sg390
F0.7256542611512996
sba(igene
linkGene
p1969
(dp1970
g389
I01
sg350
I24
sg70
I1
sg74
I11
sg390
F-1.0921409315143018
sba(igene
linkGene
p1971
(dp1972
g389
I01
sg350
I25
sg70
I2
sg74
I11
sg390
F1.2800016975411006
sba(igene
linkGene
p1973
(dp1974
g389
I01
sg350
I26
sg70
I3
sg74
I11
sg390
F-0.3764819334576559
sba(igene
linkGene
p1975
(dp1976
g389
I01
sg350
I27
sg70
I4
sg74
I11
sg390
F-2.8691441159877087
sba(igene
linkGene
p1977
(dp1978
g389
I01
sg350
I28
sg70
I5
sg74
I11
sg390
F2.144642830062323
sba(igene
linkGene
p1979
(dp1980
g389
I01
sg350
I29
sg70
I6
sg74
I11
sg390
F-2.5898510306742843
sba(igene
linkGene
p1981
(dp1982
g389
I01
sg350
I30
sg70
I7
sg74
I11
sg390
F0.4373236430664724
sba(igene
linkGene
p1983
(dp1984
g389
I01
sg350
I31
sg70
I8
sg74
I11
sg390
F1.5029514975067384
sba(igene
linkGene
p1985
(dp1986
g389
I01
sg350
I32
sg70
I9
sg74
I11
sg390
F0.3846995583584675
sba(igene
linkGene
p1987
(dp1988
g389
I01
sg350
I33
sg70
I0
sg74
I12
sg390
F-2.083270028792148
sba(igene
linkGene
p1989
(dp1990
g389
I01
sg350
I34
sg70
I1
sg74
I12
sg390
F-0.8348725806772619
sba(igene
linkGene
p1991
(dp1992
g389
I01
sg350
I35
sg70
I2
sg74
I12
sg390
F0.1128209321805893
sba(igene
linkGene
p1993
(dp1994
g389
I01
sg350
I36
sg70
I3
sg74
I12
sg390
F2.405562320436641
sba(igene
linkGene
p1995
(dp1996
g389
I01
sg350
I37
sg70
I4
sg74
I12
sg390
F-2.6328639408363443
sba(igene
linkGene
p1997
(dp1998
g389
I01
sg350
I38
sg70
I5
sg74
I12
sg390
F-3.163545669098057
sba(igene
linkGene
p1999
(dp2000
g389
I01
sg350
I39
sg70
I6
sg74
I12
sg390
F0.4225809222698931
sba(igene
linkGene
p2001
(dp2002
g389
I01
sg350
I40
sg70
I7
sg74
I12
sg390
F0.07044383400927456
sba(igene
linkGene
p2003
(dp2004
g389
I00
sg350
I41
sg70
I8
sg74
I12
sg390
F2.971088187273895
sba(igene
linkGene
p2005
(dp2006
g389
I01
sg350
I42
sg70
I9
sg74
I12
sg390
F0.4047743977303637
sba(igene
linkGene
p2007
(dp2008
g389
I01
sg350
I78
sg70
I11
sg74
I12
sg390
F0.45790623932017605
sba(igene
linkGene
p2009
(dp2010
g389
I01
sg350
I80
sg70
I8
sg74
I79
sg390
F1.0
sba(igene
linkGene
p2011
(dp2012
g389
I01
sg350
I81
sg70
I79
sg74
I12
sg390
F2.971088187273895
sbasg335
g6
sba(igenome
Genome
p2013
(dp2014
g346
(lp2015
(igene
nodeGene
p2016
(dp2017
g73
I0
sg350
I0
sg70
I0
sg74
I0
sba(igene
nodeGene
p2018
(dp2019
g73
I1
sg350
I1
sg70
I1
sg74
I0
sba(igene
nodeGene
p2020
(dp2021
g73
I1
sg350
I2
sg70
I2
sg74
I0
sba(igene
nodeGene
p2022
(dp2023
g73
I1
sg350
I3
sg70
I3
sg74
I0
sba(igene
nodeGene
p2024
(dp2025
g73
I1
sg350
I4
sg70
I4
sg74
I0
sba(igene
nodeGene
p2026
(dp2027
g73
I1
sg350
I5
sg70
I5
sg74
I0
sba(igene
nodeGene
p2028
(dp2029
g73
I1
sg350
I6
sg70
I6
sg74
I0
sba(igene
nodeGene
p2030
(dp2031
g73
I1
sg350
I7
sg70
I7
sg74
I0
sba(igene
nodeGene
p2032
(dp2033
g73
I1
sg350
I8
sg70
I8
sg74
I0
sba(igene
nodeGene
p2034
(dp2035
g73
I1
sg350
I9
sg70
I9
sg74
I0
sba(igene
nodeGene
p2036
(dp2037
g73
I2
sg350
I10
sg70
I0
sg74
I1
sba(igene
nodeGene
p2038
(dp2039
g73
I2
sg350
I11
sg70
I0
sg74
I2
sba(igene
nodeGene
p2040
(dp2041
g73
I2
sg350
I12
sg70
I0
sg74
I3
sba(igene
nodeGene
p2042
(dp2043
g73
I3
sg350
I82
sg70
I9
sg74
I10
sbasg375
(dp2044
S't*p2/d'
p2045
F-36.024564001474744
sS'prof/dd'
p2046
F-0.9156937446233236
sS'profit'
p2047
F-0.14902000000000032
sS'trades'
p2048
I264
sS'winratio'
p2049
F0.3939393939393939
sS'drawdown'
p2050
F0.1627400000000007
sg383
F0.0
sS'p2/dd'
p2051
F-0.13645668182376797
ssg383
F0.0
sg385
(lp2052
(igene
linkGene
p2053
(dp2054
g389
I01
sg350
I13
sg70
I0
sg74
I10
sg390
F-0.08261830945825044
sba(igene
linkGene
p2055
(dp2056
g389
I01
sg350
I14
sg70
I1
sg74
I10
sg390
F-2.0276874370974163
sba(igene
linkGene
p2057
(dp2058
g389
I01
sg350
I15
sg70
I2
sg74
I10
sg390
F-2.06179868092707
sba(igene
linkGene
p2059
(dp2060
g389
I01
sg350
I16
sg70
I3
sg74
I10
sg390
F0.19132637989668683
sba(igene
linkGene
p2061
(dp2062
g389
I01
sg350
I17
sg70
I4
sg74
I10
sg390
F1.724659649777562
sba(igene
linkGene
p2063
(dp2064
g389
I01
sg350
I18
sg70
I5
sg74
I10
sg390
F1.9257551353222406
sba(igene
linkGene
p2065
(dp2066
g389
I01
sg350
I19
sg70
I6
sg74
I10
sg390
F-1.4868103534712291
sba(igene
linkGene
p2067
(dp2068
g389
I01
sg350
I20
sg70
I7
sg74
I10
sg390
F0.4792941812719109
sba(igene
linkGene
p2069
(dp2070
g389
I01
sg350
I21
sg70
I8
sg74
I10
sg390
F1.6026956844313949
sba(igene
linkGene
p2071
(dp2072
g389
I00
sg350
I22
sg70
I9
sg74
I10
sg390
F-2.665254324269623
sba(igene
linkGene
p2073
(dp2074
g389
I01
sg350
I23
sg70
I0
sg74
I11
sg390
F-0.9434177104232664
sba(igene
linkGene
p2075
(dp2076
g389
I01
sg350
I24
sg70
I1
sg74
I11
sg390
F0.05438562620180354
sba(igene
linkGene
p2077
(dp2078
g389
I01
sg350
I25
sg70
I2
sg74
I11
sg390
F-0.7116128528639092
sba(igene
linkGene
p2079
(dp2080
g389
I01
sg350
I26
sg70
I3
sg74
I11
sg390
F-2.9320624607774497
sba(igene
linkGene
p2081
(dp2082
g389
I01
sg350
I27
sg70
I4
sg74
I11
sg390
F1.1580230329629035
sba(igene
linkGene
p2083
(dp2084
g389
I01
sg350
I28
sg70
I5
sg74
I11
sg390
F0.9400273504786756
sba(igene
linkGene
p2085
(dp2086
g389
I01
sg350
I29
sg70
I6
sg74
I11
sg390
F1.299159647088595
sba(igene
linkGene
p2087
(dp2088
g389
I01
sg350
I30
sg70
I7
sg74
I11
sg390
F1.4806366997896214
sba(igene
linkGene
p2089
(dp2090
g389
I01
sg350
I31
sg70
I8
sg74
I11
sg390
F-0.04142230855280471
sba(igene
linkGene
p2091
(dp2092
g389
I01
sg350
I32
sg70
I9
sg74
I11
sg390
F-1.2307592729480032
sba(igene
linkGene
p2093
(dp2094
g389
I01
sg350
I33
sg70
I0
sg74
I12
sg390
F2.9207879341614986
sba(igene
linkGene
p2095
(dp2096
g389
I01
sg350
I34
sg70
I1
sg74
I12
sg390
F1.6691273235947504
sba(igene
linkGene
p2097
(dp2098
g389
I01
sg350
I35
sg70
I2
sg74
I12
sg390
F2.28118529658847
sba(igene
linkGene
p2099
(dp2100
g389
I01
sg350
I36
sg70
I3
sg74
I12
sg390
F2.2764439235649117
sba(igene
linkGene
p2101
(dp2102
g389
I01
sg350
I37
sg70
I4
sg74
I12
sg390
F-3.214531843544084
sba(igene
linkGene
p2103
(dp2104
g389
I01
sg350
I38
sg70
I5
sg74
I12
sg390
F-2.513029788758972
sba(igene
linkGene
p2105
(dp2106
g389
I01
sg350
I39
sg70
I6
sg74
I12
sg390
F2.6386612377447767
sba(igene
linkGene
p2107
(dp2108
g389
I01
sg350
I40
sg70
I7
sg74
I12
sg390
F0.8394376353631479
sba(igene
linkGene
p2109
(dp2110
g389
I01
sg350
I41
sg70
I8
sg74
I12
sg390
F-0.7694269905109405
sba(igene
linkGene
p2111
(dp2112
g389
I01
sg350
I42
sg70
I9
sg74
I12
sg390
F-0.585624888473725
sba(igene
linkGene
p2113
(dp2114
g389
I01
sg350
I58
sg70
I10
sg74
I11
sg390
F0.8202047275130111
sba(igene
linkGene
p2115
(dp2116
g389
I01
sg350
I83
sg70
I9
sg74
I82
sg390
F1.0
sba(igene
linkGene
p2117
(dp2118
g389
I01
sg350
I84
sg70
I82
sg74
I10
sg390
F-2.665254324269623
sbasg335
g6
sba(igenome
Genome
p2119
(dp2120
g346
(lp2121
(igene
nodeGene
p2122
(dp2123
g73
I0
sg350
I0
sg70
I0
sg74
I0
sba(igene
nodeGene
p2124
(dp2125
g73
I1
sg350
I1
sg70
I1
sg74
I0
sba(igene
nodeGene
p2126
(dp2127
g73
I1
sg350
I2
sg70
I2
sg74
I0
sba(igene
nodeGene
p2128
(dp2129
g73
I1
sg350
I3
sg70
I3
sg74
I0
sba(igene
nodeGene
p2130
(dp2131
g73
I1
sg350
I4
sg70
I4
sg74
I0
sba(igene
nodeGene
p2132
(dp2133
g73
I1
sg350
I5
sg70
I5
sg74
I0
sba(igene
nodeGene
p2134
(dp2135
g73
I1
sg350
I6
sg70
I6
sg74
I0
sba(igene
nodeGene
p2136
(dp2137
g73
I1
sg350
I7
sg70
I7
sg74
I0
sba(igene
nodeGene
p2138
(dp2139
g73
I1
sg350
I8
sg70
I8
sg74
I0
sba(igene
nodeGene
p2140
(dp2141
g73
I1
sg350
I9
sg70
I9
sg74
I0
sba(igene
nodeGene
p2142
(dp2143
g73
I2
sg350
I10
sg70
I0
sg74
I1
sba(igene
nodeGene
p2144
(dp2145
g73
I2
sg350
I11
sg70
I0
sg74
I2
sba(igene
nodeGene
p2146
(dp2147
g73
I2
sg350
I12
sg70
I0
sg74
I3
sba(igene
nodeGene
p2148
(dp2149
g73
I3
sg350
I62
sg70
I4
sg74
I11
sba(igene
nodeGene
p2150
(dp2151
g73
I3
sg350
I65
sg70
I6
sg74
I11
sba(igene
nodeGene
p2152
(dp2153
g73
I3
sg350
I85
sg70
I4
sg74
I10
sbasg375
(dp2154
g2045
F-0.34751999999999955
sg2046
F-1.0
sg2047
F-0.11583999999999985
sg2048
I3
sg2049
F0.0
sg2050
F0.11583999999999985
sg383
F0.0
sg2051
F-0.11583999999999985
ssg383
F0.0
sg385
(lp2155
(igene
linkGene
p2156
(dp2157
g389
I01
sg350
I13
sg70
I0
sg74
I10
sg390
F-1.2788747462325336
sba(igene
linkGene
p2158
(dp2159
g389
I01
sg350
I14
sg70
I1
sg74
I10
sg390
F1.9589517094896036
sba(igene
linkGene
p2160
(dp2161
g389
I01
sg350
I15
sg70
I2
sg74
I10
sg390
F1.7576667421197456
sba(igene
linkGene
p2162
(dp2163
g389
I01
sg350
I16
sg70
I3
sg74
I10
sg390
F1.6204464306800985
sba(igene
linkGene
p2164
(dp2165
g389
I00
sg350
I17
sg70
I4
sg74
I10
sg390
F-1.1325081573784632
sba(igene
linkGene
p2166
(dp2167
g389
I01
sg350
I18
sg70
I5
sg74
I10
sg390
F1.4138964080170158
sba(igene
linkGene
p2168
(dp2169
g389
I01
sg350
I19
sg70
I6
sg74
I10
sg390
F-2.642774566933429
sba(igene
linkGene
p2170
(dp2171
g389
I01
sg350
I20
sg70
I7
sg74
I10
sg390
F0.6882378929860913
sba(igene
linkGene
p2172
(dp2173
g389
I01
sg350
I21
sg70
I8
sg74
I10
sg390
F-2.6063118176374447
sba(igene
linkGene
p2174
(dp2175
g389
I01
sg350
I22
sg70
I9
sg74
I10
sg390
F0.27889430276779326
sba(igene
linkGene
p2176
(dp2177
g389
I01
sg350
I23
sg70
I0
sg74
I11
sg390
F1.6330314072158054
sba(igene
linkGene
p2178
(dp2179
g389
I01
sg350
I24
sg70
I1
sg74
I11
sg390
F-2.332784581417624
sba(igene
linkGene
p2180
(dp2181
g389
I01
sg350
I25
sg70
I2
sg74
I11
sg390
F-2.1448535004164677
sba(igene
linkGene
p2182
(dp2183
g389
I01
sg350
I26
sg70
I3
sg74
I11
sg390
F-2.4305149644208797
sba(igene
linkGene
p2184
(dp2185
g389
I00
sg350
I27
sg70
I4
sg74
I11
sg390
F1.995756629356353
sba(igene
linkGene
p2186
(dp2187
g389
I01
sg350
I28
sg70
I5
sg74
I11
sg390
F-1.938744795654711
sba(igene
linkGene
p2188
(dp2189
g389
I00
sg350
I29
sg70
I6
sg74
I11
sg390
F-0.726725484648731
sba(igene
linkGene
p2190
(dp2191
g389
I01
sg350
I30
sg70
I7
sg74
I11
sg390
F-0.5309059483256111
sba(igene
linkGene
p2192
(dp2193
g389
I01
sg350
I31
sg70
I8
sg74
I11
sg390
F0.07386739824872013
sba(igene
linkGene
p2194
(dp2195
g389
I01
sg350
I32
sg70
I9
sg74
I11
sg390
F-2.2123166106223815
sba(igene
linkGene
p2196
(dp2197
g389
I01
sg350
I33
sg70
I0
sg74
I12
sg390
F2.4615828412352485
sba(igene
linkGene
p2198
(dp2199
g389
I01
sg350
I34
sg70
I1
sg74
I12
sg390
F-2.1467230769075374
sba(igene
linkGene
p2200
(dp2201
g389
I01
sg350
I35
sg70
I2
sg74
I12
sg390
F1.2232656633138244
sba(igene
linkGene
p2202
(dp2203
g389
I01
sg350
I36
sg70
I3
sg74
I12
sg390
F-1.428282906901698
sba(igene
linkGene
p2204
(dp2205
g389
I01
sg350
I37
sg70
I4
sg74
I12
sg390
F0.481101922934155
sba(igene
linkGene
p2206
(dp2207
g389
I01
sg350
I38
sg70
I5
sg74
I12
sg390
F-0.4153277911543064
sba(igene
linkGene
p2208
(dp2209
g389
I01
sg350
I39
sg70
I6
sg74
I12
sg390
F1.9232600993828277
sba(igene
linkGene
p2210
(dp2211
g389
I01
sg350
I40
sg70
I7
sg74
I12
sg390
F-1.8136926303703105
sba(igene
linkGene
p2212
(dp2213
g389
I01
sg350
I41
sg70
I8
sg74
I12
sg390
F-0.7861364428401789
sba(igene
linkGene
p2214
(dp2215
g389
I01
sg350
I42
sg70
I9
sg74
I12
sg390
F0.06489972489060114
sba(igene
linkGene
p2216
(dp2217
g389
I01
sg350
I63
sg70
I4
sg74
I62
sg390
F1.0
sba(igene
linkGene
p2218
(dp2219
g389
I01
sg350
I64
sg70
I62
sg74
I11
sg390
F1.995756629356353
sba(igene
linkGene
p2220
(dp2221
g389
I01
sg350
I66
sg70
I6
sg74
I65
sg390
F1.0
sba(igene
linkGene
p2222
(dp2223
g389
I01
sg350
I67
sg70
I65
sg74
I11
sg390
F-0.726725484648731
sba(igene
linkGene
p2224
(dp2225
g389
I01
sg350
I86
sg70
I4
sg74
I85
sg390
F1.0
sba(igene
linkGene
p2226
(dp2227
g389
I01
sg350
I87
sg70
I85
sg74
I10
sg390
F-1.1325081573784632
sbasg335
g6
sba(igenome
Genome
p2228
(dp2229
g346
(lp2230
(igene
nodeGene
p2231
(dp2232
g73
I0
sg350
I0
sg70
I0
sg74
I0
sba(igene
nodeGene
p2233
(dp2234
g73
I1
sg350
I1
sg70
I1
sg74
I0
sba(igene
nodeGene
p2235
(dp2236
g73
I1
sg350
I2
sg70
I2
sg74
I0
sba(igene
nodeGene
p2237
(dp2238
g73
I1
sg350
I3
sg70
I3
sg74
I0
sba(igene
nodeGene
p2239
(dp2240
g73
I1
sg350
I4
sg70
I4
sg74
I0
sba(igene
nodeGene
p2241
(dp2242
g73
I1
sg350
I5
sg70
I5
sg74
I0
sba(igene
nodeGene
p2243
(dp2244
g73
I1
sg350
I6
sg70
I6
sg74
I0
sba(igene
nodeGene
p2245
(dp2246
g73
I1
sg350
I7
sg70
I7
sg74
I0
sba(igene
nodeGene
p2247
(dp2248
g73
I1
sg350
I8
sg70
I8
sg74
I0
sba(igene
nodeGene
p2249
(dp2250
g73
I1
sg350
I9
sg70
I9
sg74
I0
sba(igene
nodeGene
p2251
(dp2252
g73
I2
sg350
I10
sg70
I0
sg74
I1
sba(igene
nodeGene
p2253
(dp2254
g73
I2
sg350
I11
sg70
I0
sg74
I2
sba(igene
nodeGene
p2255
(dp2256
g73
I2
sg350
I12
sg70
I0
sg74
I3
sba(igene
nodeGene
p2257
(dp2258
g73
I3
sg350
I89
sg70
I3
sg74
I10
sba(igene
nodeGene
p2259
(dp2260
g73
I3
sg350
I85
sg70
I4
sg74
I10
sba(igene
nodeGene
p2261
(dp2262
g73
I3
sg350
I45
sg70
I5
sg74
I12
sbasg375
(dp2263
g2045
F0.0
sg2046
F0.0
sg2047
F0.0
sg2048
I0
sg2049
F0.0
sg2050
F0.0
sg383
F0.0
sg2051
F0.0
ssg383
F0.0
sg385
(lp2264
(igene
linkGene
p2265
(dp2266
g389
I01
sg350
I13
sg70
I0
sg74
I10
sg390
F2.8109565330650734
sba(igene
linkGene
p2267
(dp2268
g389
I01
sg350
I14
sg70
I1
sg74
I10
sg390
F-1.2054061112742123
sba(igene
linkGene
p2269
(dp2270
g389
I01
sg350
I15
sg70
I2
sg74
I10
sg390
F2.919904543760187
sba(igene
linkGene
p2271
(dp2272
g389
I00
sg350
I16
sg70
I3
sg74
I10
sg390
F-2.2140500529358067
sba(igene
linkGene
p2273
(dp2274
g389
I00
sg350
I17
sg70
I4
sg74
I10
sg390
F-0.18475881943620998
sba(igene
linkGene
p2275
(dp2276
g389
I01
sg350
I18
sg70
I5
sg74
I10
sg390
F-1.4039252895649663
sba(igene
linkGene
p2277
(dp2278
g389
I01
sg350
I19
sg70
I6
sg74
I10
sg390
F0.33893911865689175
sba(igene
linkGene
p2279
(dp2280
g389
I01
sg350
I20
sg70
I7
sg74
I10
sg390
F2.9833824434307585
sba(igene
linkGene
p2281
(dp2282
g389
I01
sg350
I21
sg70
I8
sg74
I10
sg390
F-1.1257028890648015
sba(igene
linkGene
p2283
(dp2284
g389
I01
sg350
I22
sg70
I9
sg74
I10
sg390
F-0.20269756629834124
sba(igene
linkGene
p2285
(dp2286
g389
I01
sg350
I23
sg70
I0
sg74
I11
sg390
F0.40199920952626256
sba(igene
linkGene
p2287
(dp2288
g389
I01
sg350
I24
sg70
I1
sg74
I11
sg390
F-2.737337545358293
sba(igene
linkGene
p2289
(dp2290
g389
I01
sg350
I25
sg70
I2
sg74
I11
sg390
F0.5190248809193174
sba(igene
linkGene
p2291
(dp2292
g389
I01
sg350
I26
sg70
I3
sg74
I11
sg390
F-0.1070047881864632
sba(igene
linkGene
p2293
(dp2294
g389
I01
sg350
I27
sg70
I4
sg74
I11
sg390
F1.1905662298988686
sba(igene
linkGene
p2295
(dp2296
g389
I01
sg350
I28
sg70
I5
sg74
I11
sg390
F1.6321183910263621
sba(igene
linkGene
p2297
(dp2298
g389
I01
sg350
I29
sg70
I6
sg74
I11
sg390
F-0.9406378040692575
sba(igene
linkGene
p2299
(dp2300
g389
I01
sg350
I30
sg70
I7
sg74
I11
sg390
F-1.0281183615474025
sba(igene
linkGene
p2301
(dp2302
g389
I01
sg350
I31
sg70
I8
sg74
I11
sg390
F-1.1940880908135045
sba(igene
linkGene
p2303
(dp2304
g389
I01
sg350
I32
sg70
I9
sg74
I11
sg390
F-0.3212303179729602
sba(igene
linkGene
p2305
(dp2306
g389
I01
sg350
I33
sg70
I0
sg74
I12
sg390
F3.687887433908662
sba(igene
linkGene
p2307
(dp2308
g389
I01
sg350
I34
sg70
I1
sg74
I12
sg390
F1.33386940390419
sba(igene
linkGene
p2309
(dp2310
g389
I01
sg350
I35
sg70
I2
sg74
I12
sg390
F-1.9604794886639463
sba(igene
linkGene
p2311
(dp2312
g389
I01
sg350
I36
sg70
I3
sg74
I12
sg390
F1.7573509142511305
sba(igene
linkGene
p2313
(dp2314
g389
I01
sg350
I37
sg70
I4
sg74
I12
sg390
F2.300628308950084
sba(igene
linkGene
p2315
(dp2316
g389
I00
sg350
I38
sg70
I5
sg74
I12
sg390
F-2.7258879711746378
sba(igene
linkGene
p2317
(dp2318
g389
I01
sg350
I39
sg70
I6
sg74
I12
sg390
F-1.0019911290643921
sba(igene
linkGene
p2319
(dp2320
g389
I01
sg350
I40
sg70
I7
sg74
I12
sg390
F0.16455530503800397
sba(igene
linkGene
p2321
(dp2322
g389
I01
sg350
I41
sg70
I8
sg74
I12
sg390
F-2.380260856672839
sba(igene
linkGene
p2323
(dp2324
g389
I01
sg350
I42
sg70
I9
sg74
I12
sg390
F-0.9682353162542674
sba(igene
linkGene
p2325
(dp2326
g389
I01
sg350
I58
sg70
I10
sg74
I11
sg390
F2.6005798200856223
sba(igene
linkGene
p2327
(dp2328
g389
I01
sg350
I88
sg70
I10
sg74
I10
sg390
F0.3737316659452459
sba(igene
linkGene
p2329
(dp2330
g389
I01
sg350
I90
sg70
I3
sg74
I89
sg390
F1.0
sba(igene
linkGene
p2331
(dp2332
g389
I01
sg350
I91
sg70
I89
sg74
I10
sg390
F-2.2140500529358067
sba(igene
linkGene
p2333
(dp2334
g389
I01
sg350
I86
sg70
I4
sg74
I85
sg390
F1.0
sba(igene
linkGene
p2335
(dp2336
g389
I01
sg350
I87
sg70
I85
sg74
I10
sg390
F-0.18475881943620998
sba(igene
linkGene
p2337
(dp2338
g389
I01
sg350
I46
sg70
I5
sg74
I45
sg390
F1.0
sba(igene
linkGene
p2339
(dp2340
g389
I01
sg350
I47
sg70
I45
sg74
I12
sg390
F-2.7258879711746378
sbasg335
g6
sba(igenome
Genome
p2341
(dp2342
g346
(lp2343
(igene
nodeGene
p2344
(dp2345
g73
I0
sg350
I0
sg70
I0
sg74
I0
sba(igene
nodeGene
p2346
(dp2347
g73
I1
sg350
I1
sg70
I1
sg74
I0
sba(igene
nodeGene
p2348
(dp2349
g73
I1
sg350
I2
sg70
I2
sg74
I0
sba(igene
nodeGene
p2350
(dp2351
g73
I1
sg350
I3
sg70
I3
sg74
I0
sba(igene
nodeGene
p2352
(dp2353
g73
I1
sg350
I4
sg70
I4
sg74
I0
sba(igene
nodeGene
p2354
(dp2355
g73
I1
sg350
I5
sg70
I5
sg74
I0
sba(igene
nodeGene
p2356
(dp2357
g73
I1
sg350
I6
sg70
I6
sg74
I0
sba(igene
nodeGene
p2358
(dp2359
g73
I1
sg350
I7
sg70
I7
sg74
I0
sba(igene
nodeGene
p2360
(dp2361
g73
I1
sg350
I8
sg70
I8
sg74
I0
sba(igene
nodeGene
p2362
(dp2363
g73
I1
sg350
I9
sg70
I9
sg74
I0
sba(igene
nodeGene
p2364
(dp2365
g73
I2
sg350
I10
sg70
I0
sg74
I1
sba(igene
nodeGene
p2366
(dp2367
g73
I2
sg350
I11
sg70
I0
sg74
I2
sba(igene
nodeGene
p2368
(dp2369
g73
I2
sg350
I12
sg70
I0
sg74
I3
sba(igene
nodeGene
p2370
(dp2371
g73
I3
sg350
I79
sg70
I8
sg74
I12
sba(igene
nodeGene
p2372
(dp2373
g73
I3
sg350
I93
sg70
I7
sg74
I10
sbasg375
(dp2374
S't*p2/d'
p2375
F-177.17581253710628
sS'prof/dd'
p2376
F-0.9807700346975464
sS'profit'
p2377
F-0.23461000000000654
sS'trades'
p2378
I770
sS'winratio'
p2379
F0.44415584415584414
sS'drawdown'
p2380
F0.23921000000000658
sg383
F0.0
sS'p2/dd'
p2381
F-0.23009845784039776
ssg383
F0.0
sg385
(lp2382
(igene
linkGene
p2383
(dp2384
g389
I01
sg350
I13
sg70
I0
sg74
I10
sg390
F-1.023147922560282
sba(igene
linkGene
p2385
(dp2386
g389
I01
sg350
I14
sg70
I1
sg74
I10
sg390
F-2.4671043468745024
sba(igene
linkGene
p2387
(dp2388
g389
I01
sg350
I15
sg70
I2
sg74
I10
sg390
F2.4559098496676066
sba(igene
linkGene
p2389
(dp2390
g389
I01
sg350
I16
sg70
I3
sg74
I10
sg390
F2.29231003164619
sba(igene
linkGene
p2391
(dp2392
g389
I01
sg350
I17
sg70
I4
sg74
I10
sg390
F-1.7265827963590614
sba(igene
linkGene
p2393
(dp2394
g389
I01
sg350
I18
sg70
I5
sg74
I10
sg390
F2.222632914494942
sba(igene
linkGene
p2395
(dp2396
g389
I01
sg350
I19
sg70
I6
sg74
I10
sg390
F3.543456952671919
sba(igene
linkGene
p2397
(dp2398
g389
I00
sg350
I20
sg70
I7
sg74
I10
sg390
F0.6346392267613105
sba(igene
linkGene
p2399
(dp2400
g389
I01
sg350
I21
sg70
I8
sg74
I10
sg390
F1.1692412070138496
sba(igene
linkGene
p2401
(dp2402
g389
I01
sg350
I22
sg70
I9
sg74
I10
sg390
F-2.2575445539838315
sba(igene
linkGene
p2403
(dp2404
g389
I01
sg350
I23
sg70
I0
sg74
I11
sg390
F-1.1486942276893437
sba(igene
linkGene
p2405
(dp2406
g389
I01
sg350
I24
sg70
I1
sg74
I11
sg390
F-1.6290729777747273
sba(igene
linkGene
p2407
(dp2408
g389
I01
sg350
I25
sg70
I2
sg74
I11
sg390
F-1.8157181750288105
sba(igene
linkGene
p2409
(dp2410
g389
I01
sg350
I26
sg70
I3
sg74
I11
sg390
F-1.9234373829435965
sba(igene
linkGene
p2411
(dp2412
g389
I01
sg350
I27
sg70
I4
sg74
I11
sg390
F-0.5762881438638088
sba(igene
linkGene
p2413
(dp2414
g389
I01
sg350
I28
sg70
I5
sg74
I11
sg390
F-2.3214154113043186
sba(igene
linkGene
p2415
(dp2416
g389
I01
sg350
I29
sg70
I6
sg74
I11
sg390
F-1.3683679147734242
sba(igene
linkGene
p2417
(dp2418
g389
I01
sg350
I30
sg70
I7
sg74
I11
sg390
F2.498144808267469
sba(igene
linkGene
p2419
(dp2420
g389
I01
sg350
I31
sg70
I8
sg74
I11
sg390
F2.798692904926753
sba(igene
linkGene
p2421
(dp2422
g389
I01
sg350
I32
sg70
I9
sg74
I11
sg390
F1.9502994300010656
sba(igene
linkGene
p2423
(dp2424
g389
I01
sg350
I33
sg70
I0
sg74
I12
sg390
F1.446215873140789
sba(igene
linkGene
p2425
(dp2426
g389
I01
sg350
I34
sg70
I1
sg74
I12
sg390
F0.4373292598624323
sba(igene
linkGene
p2427
(dp2428
g389
I01
sg350
I35
sg70
I2
sg74
I12
sg390
F-0.628462695997797
sba(igene
linkGene
p2429
(dp2430
g389
I01
sg350
I36
sg70
I3
sg74
I12
sg390
F-0.739563864442245
sba(igene
linkGene
p2431
(dp2432
g389
I01
sg350
I37
sg70
I4
sg74
I12
sg390
F-2.605368560996873
sba(igene
linkGene
p2433
(dp2434
g389
I01
sg350
I38
sg70
I5
sg74
I12
sg390
F0.3647344682228262
sba(igene
linkGene
p2435
(dp2436
g389
I01
sg350
I39
sg70
I6
sg74
I12
sg390
F-1.639665471066471
sba(igene
linkGene
p2437
(dp2438
g389
I01
sg350
I40
sg70
I7
sg74
I12
sg390
F-1.3543155363768506
sba(igene
linkGene
p2439
(dp2440
g389
I00
sg350
I41
sg70
I8
sg74
I12
sg390
F-2.0423706253476825
sba(igene
linkGene
p2441
(dp2442
g389
I01
sg350
I42
sg70
I9
sg74
I12
sg390
F-1.8061000151513928
sba(igene
linkGene
p2443
(dp2444
g389
I01
sg350
I92
sg70
I12
sg74
I11
sg390
F1.0582715037526444
sba(igene
linkGene
p2445
(dp2446
g389
I01
sg350
I80
sg70
I8
sg74
I79
sg390
F1.0
sba(igene
linkGene
p2447
(dp2448
g389
I01
sg350
I81
sg70
I79
sg74
I12
sg390
F-2.0423706253476825
sba(igene
linkGene
p2449
(dp2450
g389
I01
sg350
I94
sg70
I7
sg74
I93
sg390
F1.0
sba(igene
linkGene
p2451
(dp2452
g389
I01
sg350
I95
sg70
I93
sg74
I10
sg390
F0.6346392267613105
sbasg335
g6
sba(igenome
Genome
p2453
(dp2454
g346
(lp2455
(igene
nodeGene
p2456
(dp2457
g73
I0
sg350
I0
sg70
I0
sg74
I0
sba(igene
nodeGene
p2458
(dp2459
g73
I1
sg350
I1
sg70
I1
sg74
I0
sba(igene
nodeGene
p2460
(dp2461
g73
I1
sg350
I2
sg70
I2
sg74
I0
sba(igene
nodeGene
p2462
(dp2463
g73
I1
sg350
I3
sg70
I3
sg74
I0
sba(igene
nodeGene
p2464
(dp2465
g73
I1
sg350
I4
sg70
I4
sg74
I0
sba(igene
nodeGene
p2466
(dp2467
g73
I1
sg350
I5
sg70
I5
sg74
I0
sba(igene
nodeGene
p2468
(dp2469
g73
I1
sg350
I6
sg70
I6
sg74
I0
sba(igene
nodeGene
p2470
(dp2471
g73
I1
sg350
I7
sg70
I7
sg74
I0
sba(igene
nodeGene
p2472
(dp2473
g73
I1
sg350
I8
sg70
I8
sg74
I0
sba(igene
nodeGene
p2474
(dp2475
g73
I1
sg350
I9
sg70
I9
sg74
I0
sba(igene
nodeGene
p2476
(dp2477
g73
I2
sg350
I10
sg70
I0
sg74
I1
sba(igene
nodeGene
p2478
(dp2479
g73
I2
sg350
I11
sg70
I0
sg74
I2
sba(igene
nodeGene
p2480
(dp2481
g73
I2
sg350
I12
sg70
I0
sg74
I3
sba(igene
nodeGene
p2482
(dp2483
g73
I3
sg350
I96
sg70
I0
sg74
I11
sbasg375
(dp2484
g2375
F0.0
sg2376
F0.0
sg2377
F0.0
sg2378
I0
sg2379
F0.0
sg2380
F0.0
sg383
F0.0
sg2381
F0.0
ssg383
F0.0
sg385
(lp2485
(igene
linkGene
p2486
(dp2487
g389
I01
sg350
I13
sg70
I0
sg74
I10
sg390
F-1.116965147883517
sba(igene
linkGene
p2488
(dp2489
g389
I01
sg350
I14
sg70
I1
sg74
I10
sg390
F2.0005744540829618
sba(igene
linkGene
p2490
(dp2491
g389
I01
sg350
I15
sg70
I2
sg74
I10
sg390
F2.2180955644247677
sba(igene
linkGene
p2492
(dp2493
g389
I01
sg350
I16
sg70
I3
sg74
I10
sg390
F-1.9967121524850555
sba(igene
linkGene
p2494
(dp2495
g389
I01
sg350
I17
sg70
I4
sg74
I10
sg390
F-2.249308587854249
sba(igene
linkGene
p2496
(dp2497
g389
I01
sg350
I18
sg70
I5
sg74
I10
sg390
F0.40164852719005006
sba(igene
linkGene
p2498
(dp2499
g389
I01
sg350
I19
sg70
I6
sg74
I10
sg390
F-0.425712712294553
sba(igene
linkGene
p2500
(dp2501
g389
I01
sg350
I20
sg70
I7
sg74
I10
sg390
F1.196836965495684
sba(igene
linkGene
p2502
(dp2503
g389
I01
sg350
I21
sg70
I8
sg74
I10
sg390
F-1.6149609055857297
sba(igene
linkGene
p2504
(dp2505
g389
I01
sg350
I22
sg70
I9
sg74
I10
sg390
F1.419015742041424
sba(igene
linkGene
p2506
(dp2507
g389
I00
sg350
I23
sg70
I0
sg74
I11
sg390
F2.450332185132175
sba(igene
linkGene
p2508
(dp2509
g389
I01
sg350
I24
sg70
I1
sg74
I11
sg390
F-1.4320946824829779
sba(igene
linkGene
p2510
(dp2511
g389
I01
sg350
I25
sg70
I2
sg74
I11
sg390
F-1.855588521863293
sba(igene
linkGene
p2512
(dp2513
g389
I01
sg350
I26
sg70
I3
sg74
I11
sg390
F-2.175711078609525
sba(igene
linkGene
p2514
(dp2515
g389
I01
sg350
I27
sg70
I4
sg74
I11
sg390
F1.3080241265180876
sba(igene
linkGene
p2516
(dp2517
g389
I01
sg350
I28
sg70
I5
sg74
I11
sg390
F-0.9926080830271453
sba(igene
linkGene
p2518
(dp2519
g389
I01
sg350
I29
sg70
I6
sg74
I11
sg390
F-0.4137284904221067
sba(igene
linkGene
p2520
(dp2521
g389
I01
sg350
I30
sg70
I7
sg74
I11
sg390
F0.41805593322711077
sba(igene
linkGene
p2522
(dp2523
g389
I01
sg350
I31
sg70
I8
sg74
I11
sg390
F-0.335960398736577
sba(igene
linkGene
p2524
(dp2525
g389
I01
sg350
I32
sg70
I9
sg74
I11
sg390
F-3.1343139888542346
sba(igene
linkGene
p2526
(dp2527
g389
I01
sg350
I33
sg70
I0
sg74
I12
sg390
F2.7894761523569542
sba(igene
linkGene
p2528
(dp2529
g389
I01
sg350
I34
sg70
I1
sg74
I12
sg390
F-1.7316350186182246
sba(igene
linkGene
p2530
(dp2531
g389
I01
sg350
I35
sg70
I2
sg74
I12
sg390
F0.8103180964649799
sba(igene
linkGene
p2532
(dp2533
g389
I01
sg350
I36
sg70
I3
sg74
I12
sg390
F-1.4236955762959178
sba(igene
linkGene
p2534
(dp2535
g389
I01
sg350
I37
sg70
I4
sg74
I12
sg390
F0.7829133771664267
sba(igene
linkGene
p2536
(dp2537
g389
I01
sg350
I38
sg70
I5
sg74
I12
sg390
F-0.32195744920844904
sba(igene
linkGene
p2538
(dp2539
g389
I01
sg350
I39
sg70
I6
sg74
I12
sg390
F1.293774890917538
sba(igene
linkGene
p2540
(dp2541
g389
I01
sg350
I40
sg70
I7
sg74
I12
sg390
F-2.3433514405213427
sba(igene
linkGene
p2542
(dp2543
g389
I01
sg350
I41
sg70
I8
sg74
I12
sg390
F-0.4094336739250415
sba(igene
linkGene
p2544
(dp2545
g389
I01
sg350
I42
sg70
I9
sg74
I12
sg390
F0.5974587998981549
sba(igene
linkGene
p2546
(dp2547
g389
I01
sg350
I43
sg70
I11
sg74
I11
sg390
F-0.03787099335682109
sba(igene
linkGene
p2548
(dp2549
g389
I01
sg350
I97
sg70
I0
sg74
I96
sg390
F1.0
sba(igene
linkGene
p2550
(dp2551
g389
I01
sg350
I98
sg70
I96
sg74
I11
sg390
F2.450332185132175
sbasg335
g6
sba(igenome
Genome
p2552
(dp2553
g346
(lp2554
(igene
nodeGene
p2555
(dp2556
g73
I0
sg350
I0
sg70
I0
sg74
I0
sba(igene
nodeGene
p2557
(dp2558
g73
I1
sg350
I1
sg70
I1
sg74
I0
sba(igene
nodeGene
p2559
(dp2560
g73
I1
sg350
I2
sg70
I2
sg74
I0
sba(igene
nodeGene
p2561
(dp2562
g73
I1
sg350
I3
sg70
I3
sg74
I0
sba(igene
nodeGene
p2563
(dp2564
g73
I1
sg350
I4
sg70
I4
sg74
I0
sba(igene
nodeGene
p2565
(dp2566
g73
I1
sg350
I5
sg70
I5
sg74
I0
sba(igene
nodeGene
p2567
(dp2568
g73
I1
sg350
I6
sg70
I6
sg74
I0
sba(igene
nodeGene
p2569
(dp2570
g73
I1
sg350
I7
sg70
I7
sg74
I0
sba(igene
nodeGene
p2571
(dp2572
g73
I1
sg350
I8
sg70
I8
sg74
I0
sba(igene
nodeGene
p2573
(dp2574
g73
I1
sg350
I9
sg70
I9
sg74
I0
sba(igene
nodeGene
p2575
(dp2576
g73
I2
sg350
I10
sg70
I0
sg74
I1
sba(igene
nodeGene
p2577
(dp2578
g73
I2
sg350
I11
sg70
I0
sg74
I2
sba(igene
nodeGene
p2579
(dp2580
g73
I2
sg350
I12
sg70
I0
sg74
I3
sba(igene
nodeGene
p2581
(dp2582
g73
I3
sg350
I100
sg70
I6
sg74
I10
sbasg375
(dp2583
g2375
F0.0
sg2376
F0.0
sg2377
F0.0
sg2378
I0
sg2379
F0.0
sg2380
F0.0
sg383
F0.0
sg2381
F0.0
ssg383
F0.0
sg385
(lp2584
(igene
linkGene
p2585
(dp2586
g389
I01
sg350
I13
sg70
I0
sg74
I10
sg390
F2.2922095069642854
sba(igene
linkGene
p2587
(dp2588
g389
I01
sg350
I14
sg70
I1
sg74
I10
sg390
F-1.4858304725110445
sba(igene
linkGene
p2589
(dp2590
g389
I01
sg350
I15
sg70
I2
sg74
I10
sg390
F-2.144483024194049
sba(igene
linkGene
p2591
(dp2592
g389
I01
sg350
I16
sg70
I3
sg74
I10
sg390
F2.0898727489979647
sba(igene
linkGene
p2593
(dp2594
g389
I01
sg350
I17
sg70
I4
sg74
I10
sg390
F1.3085624561698554
sba(igene
linkGene
p2595
(dp2596
g389
I01
sg350
I18
sg70
I5
sg74
I10
sg390
F0.04668779982846338
sba(igene
linkGene
p2597
(dp2598
g389
I00
sg350
I19
sg70
I6
sg74
I10
sg390
F0.8843642671545865
sba(igene
linkGene
p2599
(dp2600
g389
I01
sg350
I20
sg70
I7
sg74
I10
sg390
F1.518025144168694
sba(igene
linkGene
p2601
(dp2602
g389
I01
sg350
I21
sg70
I8
sg74
I10
sg390
F-1.2320711073533204
sba(igene
linkGene
p2603
(dp2604
g389
I01
sg350
I22
sg70
I9
sg74
I10
sg390
F-0.09384252521296799
sba(igene
linkGene
p2605
(dp2606
g389
I01
sg350
I23
sg70
I0
sg74
I11
sg390
F-2.4409514392959757
sba(igene
linkGene
p2607
(dp2608
g389
I01
sg350
I24
sg70
I1
sg74
I11
sg390
F-0.07504857343136834
sba(igene
linkGene
p2609
(dp2610
g389
I01
sg350
I25
sg70
I2
sg74
I11
sg390
F-0.5085711874665801
sba(igene
linkGene
p2611
(dp2612
g389
I01
sg350
I26
sg70
I3
sg74
I11
sg390
F1.2181190413121614
sba(igene
linkGene
p2613
(dp2614
g389
I01
sg350
I27
sg70
I4
sg74
I11
sg390
F-1.2852993101158625
sba(igene
linkGene
p2615
(dp2616
g389
I01
sg350
I28
sg70
I5
sg74
I11
sg390
F1.0181001538944738
sba(igene
linkGene
p2617
(dp2618
g389
I01
sg350
I29
sg70
I6
sg74
I11
sg390
F-1.5309396020110406
sba(igene
linkGene
p2619
(dp2620
g389
I01
sg350
I30
sg70
I7
sg74
I11
sg390
F0.44544930449582365
sba(igene
linkGene
p2621
(dp2622
g389
I01
sg350
I31
sg70
I8
sg74
I11
sg390
F1.485343456587113
sba(igene
linkGene
p2623
(dp2624
g389
I01
sg350
I32
sg70
I9
sg74
I11
sg390
F-3.347634287800312
sba(igene
linkGene
p2625
(dp2626
g389
I01
sg350
I33
sg70
I0
sg74
I12
sg390
F0.3029563766780745
sba(igene
linkGene
p2627
(dp2628
g389
I01
sg350
I34
sg70
I1
sg74
I12
sg390
F-1.8712836553477679
sba(igene
linkGene
p2629
(dp2630
g389
I01
sg350
I35
sg70
I2
sg74
I12
sg390
F0.00977036576380641
sba(igene
linkGene
p2631
(dp2632
g389
I01
sg350
I36
sg70
I3
sg74
I12
sg390
F-0.9545257127624822
sba(igene
linkGene
p2633
(dp2634
g389
I01
sg350
I37
sg70
I4
sg74
I12
sg390
F-1.924811398498701
sba(igene
linkGene
p2635
(dp2636
g389
I01
sg350
I38
sg70
I5
sg74
I12
sg390
F1.7412201554726658
sba(igene
linkGene
p2637
(dp2638
g389
I01
sg350
I39
sg70
I6
sg74
I12
sg390
F-2.2124527770932896
sba(igene
linkGene
p2639
(dp2640
g389
I01
sg350
I40
sg70
I7
sg74
I12
sg390
F-1.5987232229974926
sba(igene
linkGene
p2641
(dp2642
g389
I01
sg350
I41
sg70
I8
sg74
I12
sg390
F-2.370974820816515
sba(igene
linkGene
p2643
(dp2644
g389
I01
sg350
I42
sg70
I9
sg74
I12
sg390
F0.9623242000057333
sba(igene
linkGene
p2645
(dp2646
g389
I01
sg350
I99
sg70
I12
sg74
I12
sg390
F0.9065711559224239
sba(igene
linkGene
p2647
(dp2648
g389
I01
sg350
I43
sg70
I11
sg74
I11
sg390
F-0.003215173901903956
sba(igene
linkGene
p2649
(dp2650
g389
I01
sg350
I101
sg70
I6
sg74
I100
sg390
F1.0
sba(igene
linkGene
p2651
(dp2652
g389
I01
sg350
I102
sg70
I100
sg74
I10
sg390
F0.8843642671545865
sbasg335
g6
sba(igenome
Genome
p2653
(dp2654
g346
(lp2655
(igene
nodeGene
p2656
(dp2657
g73
I0
sg350
I0
sg70
I0
sg74
I0
sba(igene
nodeGene
p2658
(dp2659
g73
I1
sg350
I1
sg70
I1
sg74
I0
sba(igene
nodeGene
p2660
(dp2661
g73
I1
sg350
I2
sg70
I2
sg74
I0
sba(igene
nodeGene
p2662
(dp2663
g73
I1
sg350
I3
sg70
I3
sg74
I0
sba(igene
nodeGene
p2664
(dp2665
g73
I1
sg350
I4
sg70
I4
sg74
I0
sba(igene
nodeGene
p2666
(dp2667
g73
I1
sg350
I5
sg70
I5
sg74
I0
sba(igene
nodeGene
p2668
(dp2669
g73
I1
sg350
I6
sg70
I6
sg74
I0
sba(igene
nodeGene
p2670
(dp2671
g73
I1
sg350
I7
sg70
I7
sg74
I0
sba(igene
nodeGene
p2672
(dp2673
g73
I1
sg350
I8
sg70
I8
sg74
I0
sba(igene
nodeGene
p2674
(dp2675
g73
I1
sg350
I9
sg70
I9
sg74
I0
sba(igene
nodeGene
p2676
(dp2677
g73
I2
sg350
I10
sg70
I0
sg74
I1
sba(igene
nodeGene
p2678
(dp2679
g73
I2
sg350
I11
sg70
I0
sg74
I2
sba(igene
nodeGene
p2680
(dp2681
g73
I2
sg350
I12
sg70
I0
sg74
I3
sba(igene
nodeGene
p2682
(dp2683
g73
I3
sg350
I62
sg70
I4
sg74
I11
sba(igene
nodeGene
p2684
(dp2685
g73
I3
sg350
I103
sg70
I4
sg74
I62
sbasg375
(dp2686
g486
F0.0
sg487
F0.0
sg488
F0.0
sg490
I0
sg491
F0.0
sg492
F0.0
sg383
F0.0
sg493
F0.0
ssg383
F0.0
sg385
(lp2687
(igene
linkGene
p2688
(dp2689
g389
I01
sg350
I13
sg70
I0
sg74
I10
sg390
F1.337304631324307
sba(igene
linkGene
p2690
(dp2691
g389
I01
sg350
I14
sg70
I1
sg74
I10
sg390
F-2.525926561517645
sba(igene
linkGene
p2692
(dp2693
g389
I01
sg350
I15
sg70
I2
sg74
I10
sg390
F-0.165246356356763
sba(igene
linkGene
p2694
(dp2695
g389
I01
sg350
I16
sg70
I3
sg74
I10
sg390
F1.499236985587367
sba(igene
linkGene
p2696
(dp2697
g389
I01
sg350
I17
sg70
I4
sg74
I10
sg390
F-0.16850021863953657
sba(igene
linkGene
p2698
(dp2699
g389
I01
sg350
I18
sg70
I5
sg74
I10
sg390
F1.0634923907862106
sba(igene
linkGene
p2700
(dp2701
g389
I01
sg350
I19
sg70
I6
sg74
I10
sg390
F-1.955666715934823
sba(igene
linkGene
p2702
(dp2703
g389
I01
sg350
I20
sg70
I7
sg74
I10
sg390
F-3.622799036468532
sba(igene
linkGene
p2704
(dp2705
g389
I01
sg350
I21
sg70
I8
sg74
I10
sg390
F-1.2393914134838218
sba(igene
linkGene
p2706
(dp2707
g389
I01
sg350
I22
sg70
I9
sg74
I10
sg390
F0.15832307234828558
sba(igene
linkGene
p2708
(dp2709
g389
I01
sg350
I23
sg70
I0
sg74
I11
sg390
F1.9018378120087926
sba(igene
linkGene
p2710
(dp2711
g389
I01
sg350
I24
sg70
I1
sg74
I11
sg390
F-2.158776630510132
sba(igene
linkGene
p2712
(dp2713
g389
I01
sg350
I25
sg70
I2
sg74
I11
sg390
F-2.241922426806184
sba(igene
linkGene
p2714
(dp2715
g389
I01
sg350
I26
sg70
I3
sg74
I11
sg390
F-2.1427243590099336
sba(igene
linkGene
p2716
(dp2717
g389
I00
sg350
I27
sg70
I4
sg74
I11
sg390
F3.1397904032159305
sba(igene
linkGene
p2718
(dp2719
g389
I01
sg350
I28
sg70
I5
sg74
I11
sg390
F2.0297137466842
sba(igene
linkGene
p2720
(dp2721
g389
I01
sg350
I29
sg70
I6
sg74
I11
sg390
F-0.07243964770253114
sba(igene
linkGene
p2722
(dp2723
g389
I01
sg350
I30
sg70
I7
sg74
I11
sg390
F2.5631211247804835
sba(igene
linkGene
p2724
(dp2725
g389
I01
sg350
I31
sg70
I8
sg74
I11
sg390
F0.1423577401568329
sba(igene
linkGene
p2726
(dp2727
g389
I01
sg350
I32
sg70
I9
sg74
I11
sg390
F-2.186541196610173
sba(igene
linkGene
p2728
(dp2729
g389
I01
sg350
I33
sg70
I0
sg74
I12
sg390
F0.8253128450483072
sba(igene
linkGene
p2730
(dp2731
g389
I01
sg350
I34
sg70
I1
sg74
I12
sg390
F0.3444934317716427
sba(igene
linkGene
p2732
(dp2733
g389
I01
sg350
I35
sg70
I2
sg74
I12
sg390
F-2.9725777994252307
sba(igene
linkGene
p2734
(dp2735
g389
I01
sg350
I36
sg70
I3
sg74
I12
sg390
F-2.2101702936635705
sba(igene
linkGene
p2736
(dp2737
g389
I01
sg350
I37
sg70
I4
sg74
I12
sg390
F1.2584729858444041
sba(igene
linkGene
p2738
(dp2739
g389
I01
sg350
I38
sg70
I5
sg74
I12
sg390
F1.94973852844522
sba(igene
linkGene
p2740
(dp2741
g389
I01
sg350
I39
sg70
I6
sg74
I12
sg390
F-0.18131669478621149
sba(igene
linkGene
p2742
(dp2743
g389
I01
sg350
I40
sg70
I7
sg74
I12
sg390
F-2.9984581667284087
sba(igene
linkGene
p2744
(dp2745
g389
I01
sg350
I41
sg70
I8
sg74
I12
sg390
F-0.20907878812897462
sba(igene
linkGene
p2746
(dp2747
g389
I01
sg350
I42
sg70
I9
sg74
I12
sg390
F1.0674290057626175
sba(igene
linkGene
p2748
(dp2749
g389
I00
sg350
I63
sg70
I4
sg74
I62
sg390
F1.0
sba(igene
linkGene
p2750
(dp2751
g389
I01
sg350
I64
sg70
I62
sg74
I11
sg390
F3.1397904032159305
sba(igene
linkGene
p2752
(dp2753
g389
I01
sg350
I104
sg70
I4
sg74
I103
sg390
F1.0
sba(igene
linkGene
p2754
(dp2755
g389
I01
sg350
I105
sg70
I103
sg74
I62
sg390
F1.0
sbasg335
g6
sba(igenome
Genome
p2756
(dp2757
g346
(lp2758
(igene
nodeGene
p2759
(dp2760
g73
I0
sg350
I0
sg70
I0
sg74
I0
sba(igene
nodeGene
p2761
(dp2762
g73
I1
sg350
I1
sg70
I1
sg74
I0
sba(igene
nodeGene
p2763
(dp2764
g73
I1
sg350
I2
sg70
I2
sg74
I0
sba(igene
nodeGene
p2765
(dp2766
g73
I1
sg350
I3
sg70
I3
sg74
I0
sba(igene
nodeGene
p2767
(dp2768
g73
I1
sg350
I4
sg70
I4
sg74
I0
sba(igene
nodeGene
p2769
(dp2770
g73
I1
sg350
I5
sg70
I5
sg74
I0
sba(igene
nodeGene
p2771
(dp2772
g73
I1
sg350
I6
sg70
I6
sg74
I0
sba(igene
nodeGene
p2773
(dp2774
g73
I1
sg350
I7
sg70
I7
sg74
I0
sba(igene
nodeGene
p2775
(dp2776
g73
I1
sg350
I8
sg70
I8
sg74
I0
sba(igene
nodeGene
p2777
(dp2778
g73
I1
sg350
I9
sg70
I9
sg74
I0
sba(igene
nodeGene
p2779
(dp2780
g73
I2
sg350
I10
sg70
I0
sg74
I1
sba(igene
nodeGene
p2781
(dp2782
g73
I2
sg350
I11
sg70
I0
sg74
I2
sba(igene
nodeGene
p2783
(dp2784
g73
I2
sg350
I12
sg70
I0
sg74
I3
sba(igene
nodeGene
p2785
(dp2786
g73
I3
sg350
I106
sg70
I2
sg74
I12
sbasg375
(dp2787
g910
F-1.8399499999999989
sg911
F-1.0
sg912
F-0.36798999999999976
sg913
I5
sg914
F0.2
sg915
F0.36798999999999976
sg383
F0.0
sg916
F-0.36798999999999976
ssg383
F0.0
sg385
(lp2788
(igene
linkGene
p2789
(dp2790
g389
I01
sg350
I13
sg70
I0
sg74
I10
sg390
F2.1357423212698032
sba(igene
linkGene
p2791
(dp2792
g389
I01
sg350
I14
sg70
I1
sg74
I10
sg390
F-0.059382828094195594
sba(igene
linkGene
p2793
(dp2794
g389
I01
sg350
I15
sg70
I2
sg74
I10
sg390
F-1.9550502528629912
sba(igene
linkGene
p2795
(dp2796
g389
I01
sg350
I16
sg70
I3
sg74
I10
sg390
F1.8793477726887984
sba(igene
linkGene
p2797
(dp2798
g389
I01
sg350
I17
sg70
I4
sg74
I10
sg390
F-1.5001067976854578
sba(igene
linkGene
p2799
(dp2800
g389
I01
sg350
I18
sg70
I5
sg74
I10
sg390
F0.5611191850101142
sba(igene
linkGene
p2801
(dp2802
g389
I01
sg350
I19
sg70
I6
sg74
I10
sg390
F1.1307387220668963
sba(igene
linkGene
p2803
(dp2804
g389
I01
sg350
I20
sg70
I7
sg74
I10
sg390
F1.3711510538242924
sba(igene
linkGene
p2805
(dp2806
g389
I01
sg350
I21
sg70
I8
sg74
I10
sg390
F0.7678137183707308
sba(igene
linkGene
p2807
(dp2808
g389
I01
sg350
I22
sg70
I9
sg74
I10
sg390
F1.1966176121668146
sba(igene
linkGene
p2809
(dp2810
g389
I01
sg350
I23
sg70
I0
sg74
I11
sg390
F2.1098447060581624
sba(igene
linkGene
p2811
(dp2812
g389
I01
sg350
I24
sg70
I1
sg74
I11
sg390
F-1.5323281130632351
sba(igene
linkGene
p2813
(dp2814
g389
I01
sg350
I25
sg70
I2
sg74
I11
sg390
F-2.2666973216150117
sba(igene
linkGene
p2815
(dp2816
g389
I01
sg350
I26
sg70
I3
sg74
I11
sg390
F2.0729840553383387
sba(igene
linkGene
p2817
(dp2818
g389
I01
sg350
I27
sg70
I4
sg74
I11
sg390
F0.8124312701461166
sba(igene
linkGene
p2819
(dp2820
g389
I01
sg350
I28
sg70
I5
sg74
I11
sg390
F-1.0874173692069353
sba(igene
linkGene
p2821
(dp2822
g389
I01
sg350
I29
sg70
I6
sg74
I11
sg390
F-0.7298191143187311
sba(igene
linkGene
p2823
(dp2824
g389
I01
sg350
I30
sg70
I7
sg74
I11
sg390
F-2.096259418837775
sba(igene
linkGene
p2825
(dp2826
g389
I01
sg350
I31
sg70
I8
sg74
I11
sg390
F-0.1747306563076907
sba(igene
linkGene
p2827
(dp2828
g389
I01
sg350
I32
sg70
I9
sg74
I11
sg390
F-1.5475651210489207
sba(igene
linkGene
p2829
(dp2830
g389
I01
sg350
I33
sg70
I0
sg74
I12
sg390
F-1.0847377563709777
sba(igene
linkGene
p2831
(dp2832
g389
I01
sg350
I34
sg70
I1
sg74
I12
sg390
F3.5470514148161056
sba(igene
linkGene
p2833
(dp2834
g389
I00
sg350
I35
sg70
I2
sg74
I12
sg390
F0.9140681538384918
sba(igene
linkGene
p2835
(dp2836
g389
I01
sg350
I36
sg70
I3
sg74
I12
sg390
F0.41236453023455666
sba(igene
linkGene
p2837
(dp2838
g389
I01
sg350
I37
sg70
I4
sg74
I12
sg390
F-1.9753998940078996
sba(igene
linkGene
p2839
(dp2840
g389
I01
sg350
I38
sg70
I5
sg74
I12
sg390
F-2.032682225313634
sba(igene
linkGene
p2841
(dp2842
g389
I01
sg350
I39
sg70
I6
sg74
I12
sg390
F-2.7050483784480033
sba(igene
linkGene
p2843
(dp2844
g389
I01
sg350
I40
sg70
I7
sg74
I12
sg390
F2.5023924051665842
sba(igene
linkGene
p2845
(dp2846
g389
I01
sg350
I41
sg70
I8
sg74
I12
sg390
F2.2626013995994994
sba(igene
linkGene
p2847
(dp2848
g389
I01
sg350
I42
sg70
I9
sg74
I12
sg390
F1.6975190425071265
sba(igene
linkGene
p2849
(dp2850
g389
I01
sg350
I99
sg70
I12
sg74
I12
sg390
F1.3071250450701069
sba(igene
linkGene
p2851
(dp2852
g389
I01
sg350
I107
sg70
I2
sg74
I106
sg390
F1.0
sba(igene
linkGene
p2853
(dp2854
g389
I01
sg350
I108
sg70
I106
sg74
I12
sg390
F0.9140681538384918
sbasg335
g6
sba(igenome
Genome
p2855
(dp2856
g346
(lp2857
(igene
nodeGene
p2858
(dp2859
g73
I0
sg350
I0
sg70
I0
sg74
I0
sba(igene
nodeGene
p2860
(dp2861
g73
I1
sg350
I1
sg70
I1
sg74
I0
sba(igene
nodeGene
p2862
(dp2863
g73
I1
sg350
I2
sg70
I2
sg74
I0
sba(igene
nodeGene
p2864
(dp2865
g73
I1
sg350
I3
sg70
I3
sg74
I0
sba(igene
nodeGene
p2866
(dp2867
g73
I1
sg350
I4
sg70
I4
sg74
I0
sba(igene
nodeGene
p2868
(dp2869
g73
I1
sg350
I5
sg70
I5
sg74
I0
sba(igene
nodeGene
p2870
(dp2871
g73
I1
sg350
I6
sg70
I6
sg74
I0
sba(igene
nodeGene
p2872
(dp2873
g73
I1
sg350
I7
sg70
I7
sg74
I0
sba(igene
nodeGene
p2874
(dp2875
g73
I1
sg350
I8
sg70
I8
sg74
I0
sba(igene
nodeGene
p2876
(dp2877
g73
I1
sg350
I9
sg70
I9
sg74
I0
sba(igene
nodeGene
p2878
(dp2879
g73
I2
sg350
I10
sg70
I0
sg74
I1
sba(igene
nodeGene
p2880
(dp2881
g73
I2
sg350
I11
sg70
I0
sg74
I2
sba(igene
nodeGene
p2882
(dp2883
g73
I2
sg350
I12
sg70
I0
sg74
I3
sba(igene
nodeGene
p2884
(dp2885
g73
I3
sg350
I89
sg70
I3
sg74
I10
sba(igene
nodeGene
p2886
(dp2887
g73
I3
sg350
I112
sg70
I3
sg74
I89
sba(igene
nodeGene
p2888
(dp2889
g73
I3
sg350
I115
sg70
I8
sg74
I10
sba(igene
nodeGene
p2890
(dp2891
g73
I3
sg350
I118
sg70
I5
sg74
I10
sbasg375
(dp2892
S't*p2/d'
p2893
F0.0
sS'prof/dd'
p2894
F0.0
sS'profit'
p2895
F0.0
sS'trades'
p2896
I0
sS'winratio'
p2897
F0.0
sS'drawdown'
p2898
F0.0
sg383
F0.0
sS'p2/dd'
p2899
F0.0
ssg383
F0.0
sg385
(lp2900
(igene
linkGene
p2901
(dp2902
g389
I01
sg350
I13
sg70
I0
sg74
I10
sg390
F-1.6344729386654333
sba(igene
linkGene
p2903
(dp2904
g389
I01
sg350
I14
sg70
I1
sg74
I10
sg390
F-2.1562613389137986
sba(igene
linkGene
p2905
(dp2906
g389
I01
sg350
I15
sg70
I2
sg74
I10
sg390
F0.14111923179560315
sba(igene
linkGene
p2907
(dp2908
g389
I00
sg350
I16
sg70
I3
sg74
I10
sg390
F-2.634868604670287
sba(igene
linkGene
p2909
(dp2910
g389
I01
sg350
I17
sg70
I4
sg74
I10
sg390
F-0.7770416647237042
sba(igene
linkGene
p2911
(dp2912
g389
I00
sg350
I18
sg70
I5
sg74
I10
sg390
F-0.3068224333364873
sba(igene
linkGene
p2913
(dp2914
g389
I01
sg350
I19
sg70
I6
sg74
I10
sg390
F0.5223734713234064
sba(igene
linkGene
p2915
(dp2916
g389
I01
sg350
I20
sg70
I7
sg74
I10
sg390
F-2.035914829953108
sba(igene
linkGene
p2917
(dp2918
g389
I00
sg350
I21
sg70
I8
sg74
I10
sg390
F-1.4521849399609643
sba(igene
linkGene
p2919
(dp2920
g389
I01
sg350
I22
sg70
I9
sg74
I10
sg390
F0.5449036581367943
sba(igene
linkGene
p2921
(dp2922
g389
I01
sg350
I23
sg70
I0
sg74
I11
sg390
F0.16084039265814232
sba(igene
linkGene
p2923
(dp2924
g389
I01
sg350
I24
sg70
I1
sg74
I11
sg390
F3.564873136202859
sba(igene
linkGene
p2925
(dp2926
g389
I01
sg350
I25
sg70
I2
sg74
I11
sg390
F0.7556790948769676
sba(igene
linkGene
p2927
(dp2928
g389
I01
sg350
I26
sg70
I3
sg74
I11
sg390
F0.5954404729903103
sba(igene
linkGene
p2929
(dp2930
g389
I01
sg350
I27
sg70
I4
sg74
I11
sg390
F-1.5544030859301234
sba(igene
linkGene
p2931
(dp2932
g389
I01
sg350
I28
sg70
I5
sg74
I11
sg390
F-1.7131078705422453
sba(igene
linkGene
p2933
(dp2934
g389
I01
sg350
I29
sg70
I6
sg74
I11
sg390
F1.003089992399412
sba(igene
linkGene
p2935
(dp2936
g389
I01
sg350
I30
sg70
I7
sg74
I11
sg390
F1.104343407765449
sba(igene
linkGene
p2937
(dp2938
g389
I01
sg350
I31
sg70
I8
sg74
I11
sg390
F0.4576425509201185
sba(igene
linkGene
p2939
(dp2940
g389
I01
sg350
I32
sg70
I9
sg74
I11
sg390
F2.0886407556946756
sba(igene
linkGene
p2941
(dp2942
g389
I01
sg350
I33
sg70
I0
sg74
I12
sg390
F-1.73899698645642
sba(igene
linkGene
p2943
(dp2944
g389
I01
sg350
I34
sg70
I1
sg74
I12
sg390
F-0.8958912876932421
sba(igene
linkGene
p2945
(dp2946
g389
I01
sg350
I35
sg70
I2
sg74
I12
sg390
F2.439686897948249
sba(igene
linkGene
p2947
(dp2948
g389
I01
sg350
I36
sg70
I3
sg74
I12
sg390
F-1.3639167453863816
sba(igene
linkGene
p2949
(dp2950
g389
I01
sg350
I37
sg70
I4
sg74
I12
sg390
F-1.3785145505321865
sba(igene
linkGene
p2951
(dp2952
g389
I01
sg350
I38
sg70
I5
sg74
I12
sg390
F-1.7250047254496172
sba(igene
linkGene
p2953
(dp2954
g389
I01
sg350
I39
sg70
I6
sg74
I12
sg390
F-2.3170673995494426
sba(igene
linkGene
p2955
(dp2956
g389
I01
sg350
I40
sg70
I7
sg74
I12
sg390
F1.7638403060959884
sba(igene
linkGene
p2957
(dp2958
g389
I01
sg350
I41
sg70
I8
sg74
I12
sg390
F1.6737375284371216
sba(igene
linkGene
p2959
(dp2960
g389
I01
sg350
I42
sg70
I9
sg74
I12
sg390
F-1.413440651591387
sba(igene
linkGene
p2961
(dp2962
g389
I00
sg350
I90
sg70
I3
sg74
I89
sg390
F1.0
sba(igene
linkGene
p2963
(dp2964
g389
I01
sg350
I91
sg70
I89
sg74
I10
sg390
F-2.634868604670287
sba(igene
linkGene
p2965
(dp2966
g389
I01
sg350
I113
sg70
I3
sg74
I112
sg390
F1.0
sba(igene
linkGene
p2967
(dp2968
g389
I01
sg350
I114
sg70
I112
sg74
I89
sg390
F1.0
sba(igene
linkGene
p2969
(dp2970
g389
I01
sg350
I116
sg70
I8
sg74
I115
sg390
F1.0
sba(igene
linkGene
p2971
(dp2972
g389
I01
sg350
I117
sg70
I115
sg74
I10
sg390
F-1.4521849399609643
sba(igene
linkGene
p2973
(dp2974
g389
I01
sg350
I119
sg70
I5
sg74
I118
sg390
F1.0
sba(igene
linkGene
p2975
(dp2976
g389
I01
sg350
I120
sg70
I118
sg74
I10
sg390
F-0.3068224333364873
sbasg335
g6
sba(igenome
Genome
p2977
(dp2978
g346
(lp2979
(igene
nodeGene
p2980
(dp2981
g73
I0
sg350
I0
sg70
I0
sg74
I0
sba(igene
nodeGene
p2982
(dp2983
g73
I1
sg350
I1
sg70
I1
sg74
I0
sba(igene
nodeGene
p2984
(dp2985
g73
I1
sg350
I2
sg70
I2
sg74
I0
sba(igene
nodeGene
p2986
(dp2987
g73
I1
sg350
I3
sg70
I3
sg74
I0
sba(igene
nodeGene
p2988
(dp2989
g73
I1
sg350
I4
sg70
I4
sg74
I0
sba(igene
nodeGene
p2990
(dp2991
g73
I1
sg350
I5
sg70
I5
sg74
I0
sba(igene
nodeGene
p2992
(dp2993
g73
I1
sg350
I6
sg70
I6
sg74
I0
sba(igene
nodeGene
p2994
(dp2995
g73
I1
sg350
I7
sg70
I7
sg74
I0
sba(igene
nodeGene
p2996
(dp2997
g73
I1
sg350
I8
sg70
I8
sg74
I0
sba(igene
nodeGene
p2998
(dp2999
g73
I1
sg350
I9
sg70
I9
sg74
I0
sba(igene
nodeGene
p3000
(dp3001
g73
I2
sg350
I10
sg70
I0
sg74
I1
sba(igene
nodeGene
p3002
(dp3003
g73
I2
sg350
I11
sg70
I0
sg74
I2
sba(igene
nodeGene
p3004
(dp3005
g73
I2
sg350
I12
sg70
I0
sg74
I3
sba(igene
nodeGene
p3006
(dp3007
g73
I3
sg350
I118
sg70
I5
sg74
I10
sbasg375
(dp3008
g2893
F0.0
sg2894
F0.0
sg2895
F0.0
sg2896
I0
sg2897
F0.0
sg2898
F0.0
sg383
F0.0
sg2899
F0.0
ssg383
F0.0
sg385
(lp3009
(igene
linkGene
p3010
(dp3011
g389
I01
sg350
I13
sg70
I0
sg74
I10
sg390
F-1.6094599477244214
sba(igene
linkGene
p3012
(dp3013
g389
I01
sg350
I14
sg70
I1
sg74
I10
sg390
F-1.7058429690483556
sba(igene
linkGene
p3014
(dp3015
g389
I01
sg350
I15
sg70
I2
sg74
I10
sg390
F-0.5516926919281744
sba(igene
linkGene
p3016
(dp3017
g389
I01
sg350
I16
sg70
I3
sg74
I10
sg390
F-2.8482409663564456
sba(igene
linkGene
p3018
(dp3019
g389
I01
sg350
I17
sg70
I4
sg74
I10
sg390
F-1.4440684548779164
sba(igene
linkGene
p3020
(dp3021
g389
I00
sg350
I18
sg70
I5
sg74
I10
sg390
F-0.948660420078087
sba(igene
linkGene
p3022
(dp3023
g389
I01
sg350
I19
sg70
I6
sg74
I10
sg390
F1.5313498619702468
sba(igene
linkGene
p3024
(dp3025
g389
I01
sg350
I20
sg70
I7
sg74
I10
sg390
F-2.5558693235276273
sba(igene
linkGene
p3026
(dp3027
g389
I01
sg350
I21
sg70
I8
sg74
I10
sg390
F-2.225335496639306
sba(igene
linkGene
p3028
(dp3029
g389
I01
sg350
I22
sg70
I9
sg74
I10
sg390
F-0.23860204390831097
sba(igene
linkGene
p3030
(dp3031
g389
I01
sg350
I23
sg70
I0
sg74
I11
sg390
F-0.09389317588924662
sba(igene
linkGene
p3032
(dp3033
g389
I01
sg350
I24
sg70
I1
sg74
I11
sg390
F2.4586128311481863
sba(igene
linkGene
p3034
(dp3035
g389
I01
sg350
I25
sg70
I2
sg74
I11
sg390
F-0.12757670778650243
sba(igene
linkGene
p3036
(dp3037
g389
I01
sg350
I26
sg70
I3
sg74
I11
sg390
F0.5497151866156365
sba(igene
linkGene
p3038
(dp3039
g389
I01
sg350
I27
sg70
I4
sg74
I11
sg390
F-1.1460495149409837
sba(igene
linkGene
p3040
(dp3041
g389
I01
sg350
I28
sg70
I5
sg74
I11
sg390
F-1.7278289772035929
sba(igene
linkGene
p3042
(dp3043
g389
I01
sg350
I29
sg70
I6
sg74
I11
sg390
F0.5224402333127521
sba(igene
linkGene
p3044
(dp3045
g389
I01
sg350
I30
sg70
I7
sg74
I11
sg390
F1.6106128256717662
sba(igene
linkGene
p3046
(dp3047
g389
I01
sg350
I31
sg70
I8
sg74
I11
sg390
F0.34246139354635985
sba(igene
linkGene
p3048
(dp3049
g389
I01
sg350
I32
sg70
I9
sg74
I11
sg390
F2.9350468903275857
sba(igene
linkGene
p3050
(dp3051
g389
I01
sg350
I33
sg70
I0
sg74
I12
sg390
F-2.128691291034798
sba(igene
linkGene
p3052
(dp3053
g389
I01
sg350
I34
sg70
I1
sg74
I12
sg390
F-0.7662916866335057
sba(igene
linkGene
p3054
(dp3055
g389
I01
sg350
I35
sg70
I2
sg74
I12
sg390
F2.6131759600507203
sba(igene
linkGene
p3056
(dp3057
g389
I01
sg350
I36
sg70
I3
sg74
I12
sg390
F-1.2775643581810132
sba(igene
linkGene
p3058
(dp3059
g389
I01
sg350
I37
sg70
I4
sg74
I12
sg390
F-2.013328912953484
sba(igene
linkGene
p3060
(dp3061
g389
I01
sg350
I38
sg70
I5
sg74
I12
sg390
F-2.6572031987921365
sba(igene
linkGene
p3062
(dp3063
g389
I01
sg350
I39
sg70
I6
sg74
I12
sg390
F-3.399148016526449
sba(igene
linkGene
p3064
(dp3065
g389
I01
sg350
I40
sg70
I7
sg74
I12
sg390
F0.9657612350531268
sba(igene
linkGene
p3066
(dp3067
g389
I01
sg350
I41
sg70
I8
sg74
I12
sg390
F-0.4744255699666875
sba(igene
linkGene
p3068
(dp3069
g389
I01
sg350
I42
sg70
I9
sg74
I12
sg390
F-2.014975861870872
sba(igene
linkGene
p3070
(dp3071
g389
I01
sg350
I99
sg70
I12
sg74
I12
sg390
F-1.4446180564455582
sba(igene
linkGene
p3072
(dp3073
g389
I01
sg350
I119
sg70
I5
sg74
I118
sg390
F1.0
sba(igene
linkGene
p3074
(dp3075
g389
I01
sg350
I120
sg70
I118
sg74
I10
sg390
F-0.948660420078087
sbasg335
g6
sba(igenome
Genome
p3076
(dp3077
g346
(lp3078
(igene
nodeGene
p3079
(dp3080
g73
I0
sg350
I0
sg70
I0
sg74
I0
sba(igene
nodeGene
p3081
(dp3082
g73
I1
sg350
I1
sg70
I1
sg74
I0
sba(igene
nodeGene
p3083
(dp3084
g73
I1
sg350
I2
sg70
I2
sg74
I0
sba(igene
nodeGene
p3085
(dp3086
g73
I1
sg350
I3
sg70
I3
sg74
I0
sba(igene
nodeGene
p3087
(dp3088
g73
I1
sg350
I4
sg70
I4
sg74
I0
sba(igene
nodeGene
p3089
(dp3090
g73
I1
sg350
I5
sg70
I5
sg74
I0
sba(igene
nodeGene
p3091
(dp3092
g73
I1
sg350
I6
sg70
I6
sg74
I0
sba(igene
nodeGene
p3093
(dp3094
g73
I1
sg350
I7
sg70
I7
sg74
I0
sba(igene
nodeGene
p3095
(dp3096
g73
I1
sg350
I8
sg70
I8
sg74
I0
sba(igene
nodeGene
p3097
(dp3098
g73
I1
sg350
I9
sg70
I9
sg74
I0
sba(igene
nodeGene
p3099
(dp3100
g73
I2
sg350
I10
sg70
I0
sg74
I1
sba(igene
nodeGene
p3101
(dp3102
g73
I2
sg350
I11
sg70
I0
sg74
I2
sba(igene
nodeGene
p3103
(dp3104
g73
I2
sg350
I12
sg70
I0
sg74
I3
sba(igene
nodeGene
p3105
(dp3106
g73
I3
sg350
I115
sg70
I8
sg74
I10
sbasg375
(dp3107
g2893
F-31.322313119531543
sg2894
F-0.6516912160411426
sg2895
F-0.32696000000000197
sg2896
I147
sg2897
F0.5986394557823129
sg2898
F0.5017100000000005
sg383
F0.0
sg2899
F-0.21307695999681323
ssg383
F0.0
sg385
(lp3108
(igene
linkGene
p3109
(dp3110
g389
I01
sg350
I13
sg70
I0
sg74
I10
sg390
F-1.96960005347743
sba(igene
linkGene
p3111
(dp3112
g389
I01
sg350
I14
sg70
I1
sg74
I10
sg390
F-1.6989958519087636
sba(igene
linkGene
p3113
(dp3114
g389
I01
sg350
I15
sg70
I2
sg74
I10
sg390
F1.9033674975735808
sba(igene
linkGene
p3115
(dp3116
g389
I01
sg350
I16
sg70
I3
sg74
I10
sg390
F1.9792908828771105
sba(igene
linkGene
p3117
(dp3118
g389
I01
sg350
I17
sg70
I4
sg74
I10
sg390
F-1.4254076064855679
sba(igene
linkGene
p3119
(dp3120
g389
I01
sg350
I18
sg70
I5
sg74
I10
sg390
F1.732672508178764
sba(igene
linkGene
p3121
(dp3122
g389
I01
sg350
I19
sg70
I6
sg74
I10
sg390
F2.775820521266408
sba(igene
linkGene
p3123
(dp3124
g389
I01
sg350
I20
sg70
I7
sg74
I10
sg390
F1.1599092074309565
sba(igene
linkGene
p3125
(dp3126
g389
I00
sg350
I21
sg70
I8
sg74
I10
sg390
F1.4147933681162685
sba(igene
linkGene
p3127
(dp3128
g389
I01
sg350
I22
sg70
I9
sg74
I10
sg390
F-1.9842169312625164
sba(igene
linkGene
p3129
(dp3130
g389
I01
sg350
I23
sg70
I0
sg74
I11
sg390
F-1.0350923513941723
sba(igene
linkGene
p3131
(dp3132
g389
I01
sg350
I24
sg70
I1
sg74
I11
sg390
F-0.39539337464311486
sba(igene
linkGene
p3133
(dp3134
g389
I01
sg350
I25
sg70
I2
sg74
I11
sg390
F-1.711544310505553
sba(igene
linkGene
p3135
(dp3136
g389
I01
sg350
I26
sg70
I3
sg74
I11
sg390
F-2.206583063317071
sba(igene
linkGene
p3137
(dp3138
g389
I01
sg350
I27
sg70
I4
sg74
I11
sg390
F-1.2269966090711288
sba(igene
linkGene
p3139
(dp3140
g389
I01
sg350
I28
sg70
I5
sg74
I11
sg390
F-1.3291900859865053
sba(igene
linkGene
p3141
(dp3142
g389
I01
sg350
I29
sg70
I6
sg74
I11
sg390
F-0.5863099580311997
sba(igene
linkGene
p3143
(dp3144
g389
I01
sg350
I30
sg70
I7
sg74
I11
sg390
F3.0657195601493745
sba(igene
linkGene
p3145
(dp3146
g389
I01
sg350
I31
sg70
I8
sg74
I11
sg390
F2.9578859112343734
sba(igene
linkGene
p3147
(dp3148
g389
I01
sg350
I32
sg70
I9
sg74
I11
sg390
F2.585308581971191
sba(igene
linkGene
p3149
(dp3150
g389
I01
sg350
I33
sg70
I0
sg74
I12
sg390
F1.4077938891754402
sba(igene
linkGene
p3151
(dp3152
g389
I01
sg350
I34
sg70
I1
sg74
I12
sg390
F0.6726614209323647
sba(igene
linkGene
p3153
(dp3154
g389
I01
sg350
I35
sg70
I2
sg74
I12
sg390
F-0.4051601126953397
sba(igene
linkGene
p3155
(dp3156
g389
I01
sg350
I36
sg70
I3
sg74
I12
sg390
F-0.41895915651061166
sba(igene
linkGene
p3157
(dp3158
g389
I01
sg350
I37
sg70
I4
sg74
I12
sg390
F-3.128449213865493
sba(igene
linkGene
p3159
(dp3160
g389
I01
sg350
I38
sg70
I5
sg74
I12
sg390
F0.7293579480463288
sba(igene
linkGene
p3161
(dp3162
g389
I01
sg350
I39
sg70
I6
sg74
I12
sg390
F-1.3369146017260924
sba(igene
linkGene
p3163
(dp3164
g389
I01
sg350
I40
sg70
I7
sg74
I12
sg390
F-2.139088693308031
sba(igene
linkGene
p3165
(dp3166
g389
I01
sg350
I41
sg70
I8
sg74
I12
sg390
F-0.6935609868298787
sba(igene
linkGene
p3167
(dp3168
g389
I01
sg350
I42
sg70
I9
sg74
I12
sg390
F-3.1461947455143005
sba(igene
linkGene
p3169
(dp3170
g389
I01
sg350
I58
sg70
I10
sg74
I11
sg390
F-2.3531716928557866
sba(igene
linkGene
p3171
(dp3172
g389
I01
sg350
I116
sg70
I8
sg74
I115
sg390
F1.0
sba(igene
linkGene
p3173
(dp3174
g389
I01
sg350
I117
sg70
I115
sg74
I10
sg390
F1.4147933681162685
sbasg335
g6
sba(igenome
Genome
p3175
(dp3176
g346
(lp3177
(igene
nodeGene
p3178
(dp3179
g73
I0
sg350
I0
sg70
I0
sg74
I0
sba(igene
nodeGene
p3180
(dp3181
g73
I1
sg350
I1
sg70
I1
sg74
I0
sba(igene
nodeGene
p3182
(dp3183
g73
I1
sg350
I2
sg70
I2
sg74
I0
sba(igene
nodeGene
p3184
(dp3185
g73
I1
sg350
I3
sg70
I3
sg74
I0
sba(igene
nodeGene
p3186
(dp3187
g73
I1
sg350
I4
sg70
I4
sg74
I0
sba(igene
nodeGene
p3188
(dp3189
g73
I1
sg350
I5
sg70
I5
sg74
I0
sba(igene
nodeGene
p3190
(dp3191
g73
I1
sg350
I6
sg70
I6
sg74
I0
sba(igene
nodeGene
p3192
(dp3193
g73
I1
sg350
I7
sg70
I7
sg74
I0
sba(igene
nodeGene
p3194
(dp3195
g73
I1
sg350
I8
sg70
I8
sg74
I0
sba(igene
nodeGene
p3196
(dp3197
g73
I1
sg350
I9
sg70
I9
sg74
I0
sba(igene
nodeGene
p3198
(dp3199
g73
I2
sg350
I10
sg70
I0
sg74
I1
sba(igene
nodeGene
p3200
(dp3201
g73
I2
sg350
I11
sg70
I0
sg74
I2
sba(igene
nodeGene
p3202
(dp3203
g73
I2
sg350
I12
sg70
I0
sg74
I3
sba(igene
nodeGene
p3204
(dp3205
g73
I3
sg350
I85
sg70
I4
sg74
I10
sba(igene
nodeGene
p3206
(dp3207
g73
I3
sg350
I121
sg70
I7
sg74
I11
sbasg375
(dp3208
g1115
F-7.150126382093224
sg1116
F-0.3038526294939008
sg1117
F-0.030679999999998833
sg1118
I767
sg1119
F0.5058670143415906
sg1120
F0.10096999999999891
sg383
F0.0
sg1121
F-0.009322198672872522
ssg383
F0.0
sg385
(lp3209
(igene
linkGene
p3210
(dp3211
g389
I01
sg350
I13
sg70
I0
sg74
I10
sg390
F0.39124400393940406
sba(igene
linkGene
p3212
(dp3213
g389
I01
sg350
I14
sg70
I1
sg74
I10
sg390
F-1.0726155688592365
sba(igene
linkGene
p3214
(dp3215
g389
I01
sg350
I15
sg70
I2
sg74
I10
sg390
F-1.4661137961102821
sba(igene
linkGene
p3216
(dp3217
g389
I01
sg350
I16
sg70
I3
sg74
I10
sg390
F0.03039375696704827
sba(igene
linkGene
p3218
(dp3219
g389
I00
sg350
I17
sg70
I4
sg74
I10
sg390
F1.2494114879824028
sba(igene
linkGene
p3220
(dp3221
g389
I01
sg350
I18
sg70
I5
sg74
I10
sg390
F2.540005294345205
sba(igene
linkGene
p3222
(dp3223
g389
I01
sg350
I19
sg70
I6
sg74
I10
sg390
F-0.8443606014194447
sba(igene
linkGene
p3224
(dp3225
g389
I01
sg350
I20
sg70
I7
sg74
I10
sg390
F1.0986887266177876
sba(igene
linkGene
p3226
(dp3227
g389
I01
sg350
I21
sg70
I8
sg74
I10
sg390
F2.3292827211224996
sba(igene
linkGene
p3228
(dp3229
g389
I01
sg350
I22
sg70
I9
sg74
I10
sg390
F-2.6098202683237073
sba(igene
linkGene
p3230
(dp3231
g389
I01
sg350
I23
sg70
I0
sg74
I11
sg390
F-0.5880305620364964
sba(igene
linkGene
p3232
(dp3233
g389
I01
sg350
I24
sg70
I1
sg74
I11
sg390
F0.07717069848888658
sba(igene
linkGene
p3234
(dp3235
g389
I01
sg350
I25
sg70
I2
sg74
I11
sg390
F-1.6826062579979228
sba(igene
linkGene
p3236
(dp3237
g389
I01
sg350
I26
sg70
I3
sg74
I11
sg390
F-3.6344144646101486
sba(igene
linkGene
p3238
(dp3239
g389
I01
sg350
I27
sg70
I4
sg74
I11
sg390
F1.1736827501090208
sba(igene
linkGene
p3240
(dp3241
g389
I01
sg350
I28
sg70
I5
sg74
I11
sg390
F0.9400273504786756
sba(igene
linkGene
p3242
(dp3243
g389
I01
sg350
I29
sg70
I6
sg74
I11
sg390
F-0.03731440571365985
sba(igene
linkGene
p3244
(dp3245
g389
I00
sg350
I30
sg70
I7
sg74
I11
sg390
F1.92808653844074
sba(igene
linkGene
p3246
(dp3247
g389
I01
sg350
I31
sg70
I8
sg74
I11
sg390
F-1.1571043695803913
sba(igene
linkGene
p3248
(dp3249
g389
I01
sg350
I32
sg70
I9
sg74
I11
sg390
F-1.1074055903069395
sba(igene
linkGene
p3250
(dp3251
g389
I01
sg350
I33
sg70
I0
sg74
I12
sg390
F1.6298240740564882
sba(igene
linkGene
p3252
(dp3253
g389
I01
sg350
I34
sg70
I1
sg74
I12
sg390
F2.1599981393799155
sba(igene
linkGene
p3254
(dp3255
g389
I01
sg350
I35
sg70
I2
sg74
I12
sg390
F-1.592482819591755
sba(igene
linkGene
p3256
(dp3257
g389
I01
sg350
I36
sg70
I3
sg74
I12
sg390
F1.632920499602557
sba(igene
linkGene
p3258
(dp3259
g389
I01
sg350
I37
sg70
I4
sg74
I12
sg390
F-1.8800965599549218
sba(igene
linkGene
p3260
(dp3261
g389
I01
sg350
I38
sg70
I5
sg74
I12
sg390
F-2.901869078692286
sba(igene
linkGene
p3262
(dp3263
g389
I01
sg350
I39
sg70
I6
sg74
I12
sg390
F2.5275570256071243
sba(igene
linkGene
p3264
(dp3265
g389
I01
sg350
I40
sg70
I7
sg74
I12
sg390
F0.41775742326760223
sba(igene
linkGene
p3266
(dp3267
g389
I01
sg350
I41
sg70
I8
sg74
I12
sg390
F-1.1735394343340764
sba(igene
linkGene
p3268
(dp3269
g389
I01
sg350
I42
sg70
I9
sg74
I12
sg390
F-0.8012847378882301
sba(igene
linkGene
p3270
(dp3271
g389
I01
sg350
I99
sg70
I12
sg74
I12
sg390
F-2.893411381726681
sba(igene
linkGene
p3272
(dp3273
g389
I01
sg350
I86
sg70
I4
sg74
I85
sg390
F1.0
sba(igene
linkGene
p3274
(dp3275
g389
I01
sg350
I87
sg70
I85
sg74
I10
sg390
F1.2494114879824028
sba(igene
linkGene
p3276
(dp3277
g389
I01
sg350
I122
sg70
I7
sg74
I121
sg390
F1.0
sba(igene
linkGene
p3278
(dp3279
g389
I01
sg350
I123
sg70
I121
sg74
I11
sg390
F1.92808653844074
sbasg335
g6
sba(igenome
Genome
p3280
(dp3281
g346
(lp3282
(igene
nodeGene
p3283
(dp3284
g73
I0
sg350
I0
sg70
I0
sg74
I0
sba(igene
nodeGene
p3285
(dp3286
g73
I1
sg350
I1
sg70
I1
sg74
I0
sba(igene
nodeGene
p3287
(dp3288
g73
I1
sg350
I2
sg70
I2
sg74
I0
sba(igene
nodeGene
p3289
(dp3290
g73
I1
sg350
I3
sg70
I3
sg74
I0
sba(igene
nodeGene
p3291
(dp3292
g73
I1
sg350
I4
sg70
I4
sg74
I0
sba(igene
nodeGene
p3293
(dp3294
g73
I1
sg350
I5
sg70
I5
sg74
I0
sba(igene
nodeGene
p3295
(dp3296
g73
I1
sg350
I6
sg70
I6
sg74
I0
sba(igene
nodeGene
p3297
(dp3298
g73
I1
sg350
I7
sg70
I7
sg74
I0
sba(igene
nodeGene
p3299
(dp3300
g73
I1
sg350
I8
sg70
I8
sg74
I0
sba(igene
nodeGene
p3301
(dp3302
g73
I1
sg350
I9
sg70
I9
sg74
I0
sba(igene
nodeGene
p3303
(dp3304
g73
I2
sg350
I10
sg70
I0
sg74
I1
sba(igene
nodeGene
p3305
(dp3306
g73
I2
sg350
I11
sg70
I0
sg74
I2
sba(igene
nodeGene
p3307
(dp3308
g73
I2
sg350
I12
sg70
I0
sg74
I3
sba(igene
nodeGene
p3309
(dp3310
g73
I3
sg350
I124
sg70
I1
sg74
I10
sbasg375
(dp3311
g1115
F-31.609402483974694
sg1116
F-0.7519030448717964
sg1117
F-0.3002800000000026
sg1118
I140
sg1119
F0.5
sg1120
F0.39936000000000266
sg383
F0.0
sg1121
F-0.22578144631410496
ssg383
F0.0
sg385
(lp3312
(igene
linkGene
p3313
(dp3314
g389
I01
sg350
I13
sg70
I0
sg74
I10
sg390
F-2.0779650712932427
sba(igene
linkGene
p3315
(dp3316
g389
I00
sg350
I14
sg70
I1
sg74
I10
sg390
F-2.292022186784796
sba(igene
linkGene
p3317
(dp3318
g389
I01
sg350
I15
sg70
I2
sg74
I10
sg390
F-3.76846300467087
sba(igene
linkGene
p3319
(dp3320
g389
I01
sg350
I16
sg70
I3
sg74
I10
sg390
F-0.5142550144920199
sba(igene
linkGene
p3321
(dp3322
g389
I01
sg350
I17
sg70
I4
sg74
I10
sg390
F-2.479619772804513
sba(igene
linkGene
p3323
(dp3324
g389
I01
sg350
I18
sg70
I5
sg74
I10
sg390
F-1.2768558066507998
sba(igene
linkGene
p3325
(dp3326
g389
I01
sg350
I19
sg70
I6
sg74
I10
sg390
F-1.1471413803823347
sba(igene
linkGene
p3327
(dp3328
g389
I01
sg350
I20
sg70
I7
sg74
I10
sg390
F1.134021402202072
sba(igene
linkGene
p3329
(dp3330
g389
I01
sg350
I21
sg70
I8
sg74
I10
sg390
F-0.8838552723150346
sba(igene
linkGene
p3331
(dp3332
g389
I01
sg350
I22
sg70
I9
sg74
I10
sg390
F2.627503282129464
sba(igene
linkGene
p3333
(dp3334
g389
I01
sg350
I23
sg70
I0
sg74
I11
sg390
F2.2202190915410136
sba(igene
linkGene
p3335
(dp3336
g389
I01
sg350
I24
sg70
I1
sg74
I11
sg390
F-1.075130335793577
sba(igene
linkGene
p3337
(dp3338
g389
I01
sg350
I25
sg70
I2
sg74
I11
sg390
F2.7255819043739598
sba(igene
linkGene
p3339
(dp3340
g389
I01
sg350
I26
sg70
I3
sg74
I11
sg390
F0.24463089454025932
sba(igene
linkGene
p3341
(dp3342
g389
I01
sg350
I27
sg70
I4
sg74
I11
sg390
F1.9607857359415808
sba(igene
linkGene
p3343
(dp3344
g389
I01
sg350
I28
sg70
I5
sg74
I11
sg390
F2.137887309210934
sba(igene
linkGene
p3345
(dp3346
g389
I01
sg350
I29
sg70
I6
sg74
I11
sg390
F1.0176839584131718
sba(igene
linkGene
p3347
(dp3348
g389
I01
sg350
I30
sg70
I7
sg74
I11
sg390
F2.2653823513957514
sba(igene
linkGene
p3349
(dp3350
g389
I01
sg350
I31
sg70
I8
sg74
I11
sg390
F-0.7505367776480242
sba(igene
linkGene
p3351
(dp3352
g389
I01
sg350
I32
sg70
I9
sg74
I11
sg390
F-1.4059903095446324
sba(igene
linkGene
p3353
(dp3354
g389
I01
sg350
I33
sg70
I0
sg74
I12
sg390
F2.391125682520633
sba(igene
linkGene
p3355
(dp3356
g389
I01
sg350
I34
sg70
I1
sg74
I12
sg390
F-2.281988584485239
sba(igene
linkGene
p3357
(dp3358
g389
I01
sg350
I35
sg70
I2
sg74
I12
sg390
F3.3181394626287712
sba(igene
linkGene
p3359
(dp3360
g389
I01
sg350
I36
sg70
I3
sg74
I12
sg390
F-1.5879517691001759
sba(igene
linkGene
p3361
(dp3362
g389
I01
sg350
I37
sg70
I4
sg74
I12
sg390
F1.2083353430237025
sba(igene
linkGene
p3363
(dp3364
g389
I01
sg350
I38
sg70
I5
sg74
I12
sg390
F-0.5201571237265042
sba(igene
linkGene
p3365
(dp3366
g389
I01
sg350
I39
sg70
I6
sg74
I12
sg390
F1.4669007696187149
sba(igene
linkGene
p3367
(dp3368
g389
I01
sg350
I40
sg70
I7
sg74
I12
sg390
F0.21640191635880246
sba(igene
linkGene
p3369
(dp3370
g389
I01
sg350
I41
sg70
I8
sg74
I12
sg390
F-2.0286621003623493
sba(igene
linkGene
p3371
(dp3372
g389
I01
sg350
I42
sg70
I9
sg74
I12
sg390
F-2.479280329610793
sba(igene
linkGene
p3373
(dp3374
g389
I01
sg350
I125
sg70
I1
sg74
I124
sg390
F1.0
sba(igene
linkGene
p3375
(dp3376
g389
I01
sg350
I126
sg70
I124
sg74
I10
sg390
F-2.292022186784796
sbasg335
g6
sba(igenome
Genome
p3377
(dp3378
g346
(lp3379
(igene
nodeGene
p3380
(dp3381
g73
I0
sg350
I0
sg70
I0
sg74
I0
sba(igene
nodeGene
p3382
(dp3383
g73
I1
sg350
I1
sg70
I1
sg74
I0
sba(igene
nodeGene
p3384
(dp3385
g73
I1
sg350
I2
sg70
I2
sg74
I0
sba(igene
nodeGene
p3386
(dp3387
g73
I1
sg350
I3
sg70
I3
sg74
I0
sba(igene
nodeGene
p3388
(dp3389
g73
I1
sg350
I4
sg70
I4
sg74
I0
sba(igene
nodeGene
p3390
(dp3391
g73
I1
sg350
I5
sg70
I5
sg74
I0
sba(igene
nodeGene
p3392
(dp3393
g73
I1
sg350
I6
sg70
I6
sg74
I0
sba(igene
nodeGene
p3394
(dp3395
g73
I1
sg350
I7
sg70
I7
sg74
I0
sba(igene
nodeGene
p3396
(dp3397
g73
I1
sg350
I8
sg70
I8
sg74
I0
sba(igene
nodeGene
p3398
(dp3399
g73
I1
sg350
I9
sg70
I9
sg74
I0
sba(igene
nodeGene
p3400
(dp3401
g73
I2
sg350
I10
sg70
I0
sg74
I1
sba(igene
nodeGene
p3402
(dp3403
g73
I2
sg350
I11
sg70
I0
sg74
I2
sba(igene
nodeGene
p3404
(dp3405
g73
I2
sg350
I12
sg70
I0
sg74
I3
sba(igene
nodeGene
p3406
(dp3407
g73
I3
sg350
I48
sg70
I0
sg74
I12
sbasg375
(dp3408
g800
F0.0
sg801
F0.0
sg802
F0.0
sg803
I0
sg804
F0.0
sg805
F0.0
sg383
F0.0
sg806
F0.0
ssg383
F0.0
sg385
(lp3409
(igene
linkGene
p3410
(dp3411
g389
I01
sg350
I13
sg70
I0
sg74
I10
sg390
F-3.36743615908275
sba(igene
linkGene
p3412
(dp3413
g389
I01
sg350
I14
sg70
I1
sg74
I10
sg390
F-1.5715886853842165
sba(igene
linkGene
p3414
(dp3415
g389
I01
sg350
I15
sg70
I2
sg74
I10
sg390
F-1.2636063688246897
sba(igene
linkGene
p3416
(dp3417
g389
I01
sg350
I16
sg70
I3
sg74
I10
sg390
F-0.8803217781532684
sba(igene
linkGene
p3418
(dp3419
g389
I01
sg350
I17
sg70
I4
sg74
I10
sg390
F-0.7163806197093285
sba(igene
linkGene
p3420
(dp3421
g389
I01
sg350
I18
sg70
I5
sg74
I10
sg390
F-1.071706372818947
sba(igene
linkGene
p3422
(dp3423
g389
I01
sg350
I19
sg70
I6
sg74
I10
sg390
F2.399308106286041
sba(igene
linkGene
p3424
(dp3425
g389
I01
sg350
I20
sg70
I7
sg74
I10
sg390
F-1.5491269675039265
sba(igene
linkGene
p3426
(dp3427
g389
I01
sg350
I21
sg70
I8
sg74
I10
sg390
F2.2735644264428805
sba(igene
linkGene
p3428
(dp3429
g389
I01
sg350
I22
sg70
I9
sg74
I10
sg390
F1.3036655714787013
sba(igene
linkGene
p3430
(dp3431
g389
I01
sg350
I23
sg70
I0
sg74
I11
sg390
F-3.0621285730199683
sba(igene
linkGene
p3432
(dp3433
g389
I01
sg350
I24
sg70
I1
sg74
I11
sg390
F1.7359616915255365
sba(igene
linkGene
p3434
(dp3435
g389
I01
sg350
I25
sg70
I2
sg74
I11
sg390
F-0.8813638503889738
sba(igene
linkGene
p3436
(dp3437
g389
I01
sg350
I26
sg70
I3
sg74
I11
sg390
F3.041701137875833
sba(igene
linkGene
p3438
(dp3439
g389
I01
sg350
I27
sg70
I4
sg74
I11
sg390
F-1.3819051350862273
sba(igene
linkGene
p3440
(dp3441
g389
I01
sg350
I28
sg70
I5
sg74
I11
sg390
F-2.0598573253537165
sba(igene
linkGene
p3442
(dp3443
g389
I01
sg350
I29
sg70
I6
sg74
I11
sg390
F1.6832517552043758
sba(igene
linkGene
p3444
(dp3445
g389
I01
sg350
I30
sg70
I7
sg74
I11
sg390
F-1.4695423831944916
sba(igene
linkGene
p3446
(dp3447
g389
I01
sg350
I31
sg70
I8
sg74
I11
sg390
F2.143595778013875
sba(igene
linkGene
p3448
(dp3449
g389
I01
sg350
I32
sg70
I9
sg74
I11
sg390
F-0.2675455547170398
sba(igene
linkGene
p3450
(dp3451
g389
I00
sg350
I33
sg70
I0
sg74
I12
sg390
F1.1508011525131268
sba(igene
linkGene
p3452
(dp3453
g389
I01
sg350
I34
sg70
I1
sg74
I12
sg390
F2.4673245599516607
sba(igene
linkGene
p3454
(dp3455
g389
I01
sg350
I35
sg70
I2
sg74
I12
sg390
F1.6202413687712087
sba(igene
linkGene
p3456
(dp3457
g389
I01
sg350
I36
sg70
I3
sg74
I12
sg390
F-2.6771918366342637
sba(igene
linkGene
p3458
(dp3459
g389
I01
sg350
I37
sg70
I4
sg74
I12
sg390
F1.612167615921421
sba(igene
linkGene
p3460
(dp3461
g389
I01
sg350
I38
sg70
I5
sg74
I12
sg390
F-1.3457816136575549
sba(igene
linkGene
p3462
(dp3463
g389
I01
sg350
I39
sg70
I6
sg74
I12
sg390
F3.0510992847745904
sba(igene
linkGene
p3464
(dp3465
g389
I01
sg350
I40
sg70
I7
sg74
I12
sg390
F-0.11958171125071032
sba(igene
linkGene
p3466
(dp3467
g389
I01
sg350
I41
sg70
I8
sg74
I12
sg390
F-1.7002198579759091
sba(igene
linkGene
p3468
(dp3469
g389
I01
sg350
I42
sg70
I9
sg74
I12
sg390
F-0.2096619719221262
sba(igene
linkGene
p3470
(dp3471
g389
I01
sg350
I57
sg70
I10
sg74
I12
sg390
F0.17218053362503927
sba(igene
linkGene
p3472
(dp3473
g389
I01
sg350
I49
sg70
I0
sg74
I48
sg390
F1.0
sba(igene
linkGene
p3474
(dp3475
g389
I01
sg350
I50
sg70
I48
sg74
I12
sg390
F1.1508011525131268
sbasg335
g6
sba(igenome
Genome
p3476
(dp3477
g346
(lp3478
(igene
nodeGene
p3479
(dp3480
g73
I0
sg350
I0
sg70
I0
sg74
I0
sba(igene
nodeGene
p3481
(dp3482
g73
I1
sg350
I1
sg70
I1
sg74
I0
sba(igene
nodeGene
p3483
(dp3484
g73
I1
sg350
I2
sg70
I2
sg74
I0
sba(igene
nodeGene
p3485
(dp3486
g73
I1
sg350
I3
sg70
I3
sg74
I0
sba(igene
nodeGene
p3487
(dp3488
g73
I1
sg350
I4
sg70
I4
sg74
I0
sba(igene
nodeGene
p3489
(dp3490
g73
I1
sg350
I5
sg70
I5
sg74
I0
sba(igene
nodeGene
p3491
(dp3492
g73
I1
sg350
I6
sg70
I6
sg74
I0
sba(igene
nodeGene
p3493
(dp3494
g73
I1
sg350
I7
sg70
I7
sg74
I0
sba(igene
nodeGene
p3495
(dp3496
g73
I1
sg350
I8
sg70
I8
sg74
I0
sba(igene
nodeGene
p3497
(dp3498
g73
I1
sg350
I9
sg70
I9
sg74
I0
sba(igene
nodeGene
p3499
(dp3500
g73
I2
sg350
I10
sg70
I0
sg74
I1
sba(igene
nodeGene
p3501
(dp3502
g73
I2
sg350
I11
sg70
I0
sg74
I2
sba(igene
nodeGene
p3503
(dp3504
g73
I2
sg350
I12
sg70
I0
sg74
I3
sba(igene
nodeGene
p3505
(dp3506
g73
I3
sg350
I109
sg70
I3
sg74
I11
sbasg375
(dp3507
g800
F-0.16872000000000015
sg801
F-1.0
sg802
F-0.08436000000000007
sg803
I2
sg804
F0.0
sg805
F0.08436000000000007
sg383
F0.0
sg806
F-0.08436000000000007
ssg383
F0.0
sg385
(lp3508
(igene
linkGene
p3509
(dp3510
g389
I01
sg350
I13
sg70
I0
sg74
I10
sg390
F-0.8109148740551844
sba(igene
linkGene
p3511
(dp3512
g389
I01
sg350
I14
sg70
I1
sg74
I10
sg390
F-1.8404338033491296
sba(igene
linkGene
p3513
(dp3514
g389
I01
sg350
I15
sg70
I2
sg74
I10
sg390
F1.9033674975735808
sba(igene
linkGene
p3515
(dp3516
g389
I01
sg350
I16
sg70
I3
sg74
I10
sg390
F2.1403565993822427
sba(igene
linkGene
p3517
(dp3518
g389
I01
sg350
I17
sg70
I4
sg74
I10
sg390
F-1.379213192607871
sba(igene
linkGene
p3519
(dp3520
g389
I01
sg350
I18
sg70
I5
sg74
I10
sg390
F1.3911192079629582
sba(igene
linkGene
p3521
(dp3522
g389
I01
sg350
I19
sg70
I6
sg74
I10
sg390
F2.250068751202842
sba(igene
linkGene
p3523
(dp3524
g389
I01
sg350
I20
sg70
I7
sg74
I10
sg390
F0.8796973227759124
sba(igene
linkGene
p3525
(dp3526
g389
I01
sg350
I21
sg70
I8
sg74
I10
sg390
F0.48084677599536096
sba(igene
linkGene
p3527
(dp3528
g389
I01
sg350
I22
sg70
I9
sg74
I10
sg390
F-2.414126821419126
sba(igene
linkGene
p3529
(dp3530
g389
I01
sg350
I23
sg70
I0
sg74
I11
sg390
F-0.678622022150704
sba(igene
linkGene
p3531
(dp3532
g389
I01
sg350
I24
sg70
I1
sg74
I11
sg390
F-0.9738966626778773
sba(igene
linkGene
p3533
(dp3534
g389
I01
sg350
I25
sg70
I2
sg74
I11
sg390
F-2.6023736428502673
sba(igene
linkGene
p3535
(dp3536
g389
I00
sg350
I26
sg70
I3
sg74
I11
sg390
F-2.414906448937873
sba(igene
linkGene
p3537
(dp3538
g389
I01
sg350
I27
sg70
I4
sg74
I11
sg390
F-1.5255826697313126
sba(igene
linkGene
p3539
(dp3540
g389
I01
sg350
I28
sg70
I5
sg74
I11
sg390
F-1.3981648818875037
sba(igene
linkGene
p3541
(dp3542
g389
I01
sg350
I29
sg70
I6
sg74
I11
sg390
F-0.16040289266002627
sba(igene
linkGene
p3543
(dp3544
g389
I01
sg350
I30
sg70
I7
sg74
I11
sg390
F1.8941540604078764
sba(igene
linkGene
p3545
(dp3546
g389
I01
sg350
I31
sg70
I8
sg74
I11
sg390
F2.739864960388427
sba(igene
linkGene
p3547
(dp3548
g389
I01
sg350
I32
sg70
I9
sg74
I11
sg390
F3.071169088006496
sba(igene
linkGene
p3549
(dp3550
g389
I01
sg350
I33
sg70
I0
sg74
I12
sg390
F1.297149497778717
sba(igene
linkGene
p3551
(dp3552
g389
I01
sg350
I34
sg70
I1
sg74
I12
sg390
F-0.6783342926505209
sba(igene
linkGene
p3553
(dp3554
g389
I01
sg350
I35
sg70
I2
sg74
I12
sg390
F-1.1643900587151743
sba(igene
linkGene
p3555
(dp3556
g389
I01
sg350
I36
sg70
I3
sg74
I12
sg390
F-0.12668281262532854
sba(igene
linkGene
p3557
(dp3558
g389
I01
sg350
I37
sg70
I4
sg74
I12
sg390
F-3.211225104318869
sba(igene
linkGene
p3559
(dp3560
g389
I01
sg350
I38
sg70
I5
sg74
I12
sg390
F0.822776923085946
sba(igene
linkGene
p3561
(dp3562
g389
I01
sg350
I39
sg70
I6
sg74
I12
sg390
F-1.7023759148513218
sba(igene
linkGene
p3563
(dp3564
g389
I01
sg350
I40
sg70
I7
sg74
I12
sg390
F-2.1463500501161317
sba(igene
linkGene
p3565
(dp3566
g389
I01
sg350
I41
sg70
I8
sg74
I12
sg390
F0.5280931369773803
sba(igene
linkGene
p3567
(dp3568
g389
I01
sg350
I42
sg70
I9
sg74
I12
sg390
F-2.469287504203229
sba(igene
linkGene
p3569
(dp3570
g389
I01
sg350
I110
sg70
I3
sg74
I109
sg390
F1.0
sba(igene
linkGene
p3571
(dp3572
g389
I01
sg350
I111
sg70
I109
sg74
I11
sg390
F-2.414906448937873
sbasg335
g6
sbasg4
F0.01586911295891369
sbasS'excessC'
p3573
F1.0
sS'threshold'
p3574
F1.6
sS'disjointC'
p3575
F1.0
sg4
F0.01586911295891369
sS'next_id'
p3576
I2
sS'population'
p3577
I30
sbsg3577
I30
sb.